

Microchip Technology PIC18 LITE Macro Assembler V2.00 build -1524193055 
                                                                                               Sat Aug 11 02:36:18 2018

Microchip Technology Omniscient Code Generator v2.00 (Free mode) build 20180527130849
     1  0000                     
     2                           ; Version 2.00
     3                           ; Generated 27/05/2018 GMT
     4                           
     5                           ; 
     6                           ; Copyright © 2018, Microchip Technology Inc. and its subsidiaries ("Microchip")
     7                           ; All rights reserved.
     8                           ; 
     9                           ; This software is developed by Microchip Technology Inc. and its subsidiaries ("Microch
                                 ip").
    10                           ; 
    11                           ; Redistribution and use in source and binary forms, with or without modification, are
    12                           ; permitted provided that the following conditions are met:
    13                           ; 
    14                           ;     1. Redistributions of source code must retain the above copyright notice, this lis
                                 t of
    15                           ;        conditions and the following disclaimer.
    16                           ; 
    17                           ;     2. Redistributions in binary form must reproduce the above copyright notice, this 
                                 list
    18                           ;        of conditions and the following disclaimer in the documentation and/or other
    19                           ;        materials provided with the distribution.
    20                           ; 
    21                           ;     3. Microchip's name may not be used to endorse or promote products derived from th
                                 is
    22                           ;        software without specific prior written permission.
    23                           ; 
    24                           ; THIS SOFTWARE IS PROVIDED BY MICROCHIP "AS IS" AND ANY EXPRESS OR IMPLIED WARRANTIES,

    25                           ; INCLUDING, BUT NOT LIMITED TO, THE IMPLIED WARRANTIES OF MERCHANTABILITY AND FITNESS F
                                 OR
    26                           ; PURPOSE ARE DISCLAIMED.  IN NO EVENT SHALL MICROCHIP BE LIABLE FOR ANY DIRECT, INDIREC
                                 T,
    27                           ; INCIDENTAL, SPECIAL, EXEMPLARY, OR CONSEQUENTIAL DAMAGES (INCLUDING BUT NOT LIMITED TO
                                 
    28                           ; PROCUREMENT OF SUBSTITUTE GOODS OR SERVICES; LOSS OF USE, DATA OR PROFITS; OR BUSINESS
                                 
    29                           ; INTERRUPTION) HOWSOEVER CAUSED AND ON ANY THEORY OF LIABILITY, WHETHER IN CONTRACT, ST
                                 RICT
    30                           ; LIABILITY, OR TORT (INCLUDING NEGLIGENCE OR OTHERWISE) ARISING IN ANY WAY OUT OF THE U
                                 SE OF
    31                           ; THIS SOFTWARE, EVEN IF ADVISED OF THE POSSIBILITY OF SUCH DAMAGE.
    32                           ; 
    33                           
    34                           
    35                           ; 
    36                           ; Code-generator required, PIC18F24K40 Definitions
    37                           ; 
    38  0000                     fsr0 equ 0FE9h
    39  0000                     fsr0h equ 0FEAh
    40  0000                     fsr0l equ 0FE9h
    41  0000                     fsr1 equ 0FE1h
    42  0000                     fsr1h equ 0FE2h
    43  0000                     fsr1l equ 0FE1h
    44  0000                     fsr2 equ 0FD9h
    45  0000                     fsr2h equ 0FDAh
    46  0000                     fsr2l equ 0FD9h
    47  0000                     indf0 equ 0FEFh
    48  0000                     indf1 equ 0FE7h
    49  0000                     indf2 equ 0FDFh
    50  0000                     intcon equ 0FF2h
    51  0000                     nvmcon equ 0F81h
    52  0000                     pcl equ 0FF9h
    53  0000                     pclath equ 0FFAh
    54  0000                     pclatu equ 0FFBh
    55  0000                     plusw0 equ 0FEBh
    56  0000                     plusw1 equ 0FE3h
    57  0000                     plusw2 equ 0FDBh
    58  0000                     postdec0 equ 0FEDh
    59  0000                     postdec1 equ 0FE5h
    60  0000                     postdec2 equ 0FDDh
    61  0000                     postinc0 equ 0FEEh
    62  0000                     postinc1 equ 0FE6h
    63  0000                     postinc2 equ 0FDEh
    64  0000                     preinc0 equ 0FECh
    65  0000                     preinc1 equ 0FE4h
    66  0000                     preinc2 equ 0FDCh
    67  0000                     prod equ 0FF3h
    68  0000                     prodh equ 0FF4h
    69  0000                     prodl equ 0FF3h
    70  0000                     status equ 0FD8h
    71  0000                     tablat equ 0FF5h
    72  0000                     tblptr equ 0FF6h
    73  0000                     tblptrh equ 0FF7h
    74  0000                     tblptrl equ 0FF6h
    75  0000                     tblptru equ 0FF8h
    76  0000                     tosl equ 0FFDh
    77  0000                     wreg equ 0FE8h
    78  0000                     
     2                           opt pagewidth 120
     3  0000                     byte0	macro	val
     4                           	(getbyte(val,0))
     5                           endm
     6  0000                     byte1	macro	val
     7                           	(getbyte(val,1))
     8                           endm
     9  0000                     byte2	macro	val
    10                           	(getbyte(val,2))
    11                           endm
    12  0000                     byte3	macro	val
    13                           	(getbyte(val,3))
    14                           endm
    15  0000                     byte4	macro	val
    16                           	(getbyte(val,4))
    17                           endm
    18  0000                     byte5	macro	val
    19                           	(getbyte(val,5))
    20                           endm
    21  0000                     byte6	macro	val
    22                           	(getbyte(val,6))
    23                           endm
    24  0000                     byte7	macro	val
    25                           	(getbyte(val,7))
    26                           endm
    27  0000                     getword	macro	val,pos
    28                           	(((val) >> (8 * pos)) and 0xffff)
    29                           endm
    30  0000                     word0	macro	val
    31                           	(getword(val,0))
    32                           endm
    33  0000                     word1	macro	val
    34                           	(getword(val,2))
    35                           endm
    36  0000                     word2	macro	val
    37                           	(getword(val,4))
    38                           endm
    39  0000                     word3	macro	val
    40                           	(getword(val,6))
    41                           endm
    42  0000                     gettword	macro	val,pos
    43                           	(((val) >> (8 * pos)) and 0xffffff)
    44                           endm
    45  0000                     tword0	macro	val
    46                           	(gettword(val,0))
    47                           endm
    48  0000                     tword1	macro	val
    49                           	(gettword(val,3))
    50                           endm
    51  0000                     tword2	macro	val
    52                           	(gettword(val,6))
    53                           endm
    54  0000                     getdword	macro	val,pos
    55                           	(((val) >> (8 * pos)) and 0xffffffff)
    56                           endm
    57  0000                     dword0	macro	val
    58                           	(getdword(val,0))
    59                           endm
    60  0000                     dword1	macro	val
    61                           	(getdword(val,4))
    62                           endm
    63  0000                     clrc   macro
    64                           	bcf	status,0
    65                           endm
    66  0000                     setc   macro
    67                           	bsf	status,0
    68                           endm
    69  0000                     clrz   macro
    70                           	bcf	status,2
    71                           endm
    72  0000                     setz   macro
    73                           	bsf	status,2
    74                           endm
    75  0000                     skipnz macro
    76                           	btfsc	status,2
    77                           endm
    78  0000                     skipz  macro
    79                           	btfss	status,2
    80                           endm
    81  0000                     skipnc macro
    82                           	btfsc	status,0
    83                           endm
    84  0000                     skipc  macro
    85                           	btfss	status,0
    86                           endm
    87  0000                     pushw macro
    88                           	movwf postinc1
    89                           endm
    90  0000                     pushf macro arg1
    91                           	movff arg1, postinc1
    92                           endm
    93  0000                     popw macro
    94                           	movf postdec1,f
    95                           	movf indf1,w
    96                           endm
    97  0000                     popf macro arg1
    98                           	movf postdec1,f
    99                           	movff indf1,arg1
   100                           endm
   101  0000                     popfc macro arg1
   102                           	movff plusw1,arg1
   103                           	decfsz fsr1,f
   104                           endm
   105  0000                     	global	__ramtop
   106                           	global	__accesstop
   107                           # 54 "C:\Program Files (x86)\Microchip\xc8\v2.00\pic\include\pic18f24k40.h"
   108                           PPSLOCK equ 0EA0h ;# 
   109  0000                     # 74 "C:\Program Files (x86)\Microchip\xc8\v2.00\pic\include\pic18f24k40.h"
   110                           INT0PPS equ 0EA1h ;# 
   111  0000                     # 134 "C:\Program Files (x86)\Microchip\xc8\v2.00\pic\include\pic18f24k40.h"
   112                           INT1PPS equ 0EA2h ;# 
   113  0000                     # 194 "C:\Program Files (x86)\Microchip\xc8\v2.00\pic\include\pic18f24k40.h"
   114                           INT2PPS equ 0EA3h ;# 
   115  0000                     # 254 "C:\Program Files (x86)\Microchip\xc8\v2.00\pic\include\pic18f24k40.h"
   116                           T0CKIPPS equ 0EA4h ;# 
   117  0000                     # 314 "C:\Program Files (x86)\Microchip\xc8\v2.00\pic\include\pic18f24k40.h"
   118                           T1CKIPPS equ 0EA5h ;# 
   119  0000                     # 380 "C:\Program Files (x86)\Microchip\xc8\v2.00\pic\include\pic18f24k40.h"
   120                           T1GPPS equ 0EA6h ;# 
   121  0000                     # 446 "C:\Program Files (x86)\Microchip\xc8\v2.00\pic\include\pic18f24k40.h"
   122                           T3CKIPPS equ 0EA7h ;# 
   123  0000                     # 512 "C:\Program Files (x86)\Microchip\xc8\v2.00\pic\include\pic18f24k40.h"
   124                           T3GPPS equ 0EA8h ;# 
   125  0000                     # 578 "C:\Program Files (x86)\Microchip\xc8\v2.00\pic\include\pic18f24k40.h"
   126                           T5CKIPPS equ 0EA9h ;# 
   127  0000                     # 644 "C:\Program Files (x86)\Microchip\xc8\v2.00\pic\include\pic18f24k40.h"
   128                           T5GPPS equ 0EAAh ;# 
   129  0000                     # 710 "C:\Program Files (x86)\Microchip\xc8\v2.00\pic\include\pic18f24k40.h"
   130                           T2INPPS equ 0EABh ;# 
   131  0000                     # 776 "C:\Program Files (x86)\Microchip\xc8\v2.00\pic\include\pic18f24k40.h"
   132                           T4INPPS equ 0EACh ;# 
   133  0000                     # 842 "C:\Program Files (x86)\Microchip\xc8\v2.00\pic\include\pic18f24k40.h"
   134                           T6INPPS equ 0EADh ;# 
   135  0000                     # 908 "C:\Program Files (x86)\Microchip\xc8\v2.00\pic\include\pic18f24k40.h"
   136                           ADACTPPS equ 0EAEh ;# 
   137  0000                     # 974 "C:\Program Files (x86)\Microchip\xc8\v2.00\pic\include\pic18f24k40.h"
   138                           CCP1PPS equ 0EAFh ;# 
   139  0000                     # 1040 "C:\Program Files (x86)\Microchip\xc8\v2.00\pic\include\pic18f24k40.h"
   140                           CCP2PPS equ 0EB0h ;# 
   141  0000                     # 1106 "C:\Program Files (x86)\Microchip\xc8\v2.00\pic\include\pic18f24k40.h"
   142                           CWG1PPS equ 0EB1h ;# 
   143  0000                     # 1111 "C:\Program Files (x86)\Microchip\xc8\v2.00\pic\include\pic18f24k40.h"
   144                           CWGINPPS equ 0EB1h ;# 
   145  0000                     # 1316 "C:\Program Files (x86)\Microchip\xc8\v2.00\pic\include\pic18f24k40.h"
   146                           MDCARLPPS equ 0EB2h ;# 
   147  0000                     # 1382 "C:\Program Files (x86)\Microchip\xc8\v2.00\pic\include\pic18f24k40.h"
   148                           MDCARHPPS equ 0EB3h ;# 
   149  0000                     # 1448 "C:\Program Files (x86)\Microchip\xc8\v2.00\pic\include\pic18f24k40.h"
   150                           MDSRCPPS equ 0EB4h ;# 
   151  0000                     # 1514 "C:\Program Files (x86)\Microchip\xc8\v2.00\pic\include\pic18f24k40.h"
   152                           RX1PPS equ 0EB5h ;# 
   153  0000                     # 1519 "C:\Program Files (x86)\Microchip\xc8\v2.00\pic\include\pic18f24k40.h"
   154                           RXPPS equ 0EB5h ;# 
   155  0000                     # 1644 "C:\Program Files (x86)\Microchip\xc8\v2.00\pic\include\pic18f24k40.h"
   156                           CK1PPS equ 0EB6h ;# 
   157  0000                     # 1649 "C:\Program Files (x86)\Microchip\xc8\v2.00\pic\include\pic18f24k40.h"
   158                           TX1PPS equ 0EB6h ;# 
   159  0000                     # 1653 "C:\Program Files (x86)\Microchip\xc8\v2.00\pic\include\pic18f24k40.h"
   160                           CKPPS equ 0EB6h ;# 
   161  0000                     # 1657 "C:\Program Files (x86)\Microchip\xc8\v2.00\pic\include\pic18f24k40.h"
   162                           TXPPS equ 0EB6h ;# 
   163  0000                     # 1898 "C:\Program Files (x86)\Microchip\xc8\v2.00\pic\include\pic18f24k40.h"
   164                           SSP1CLKPPS equ 0EB7h ;# 
   165  0000                     # 1903 "C:\Program Files (x86)\Microchip\xc8\v2.00\pic\include\pic18f24k40.h"
   166                           SSPCLKPPS equ 0EB7h ;# 
   167  0000                     # 1948 "C:\Program Files (x86)\Microchip\xc8\v2.00\pic\include\pic18f24k40.h"
   168                           SSP1DATPPS equ 0EB8h ;# 
   169  0000                     # 1953 "C:\Program Files (x86)\Microchip\xc8\v2.00\pic\include\pic18f24k40.h"
   170                           SSPDATPPS equ 0EB8h ;# 
   171  0000                     # 1998 "C:\Program Files (x86)\Microchip\xc8\v2.00\pic\include\pic18f24k40.h"
   172                           SSP1SSPPS equ 0EB9h ;# 
   173  0000                     # 2003 "C:\Program Files (x86)\Microchip\xc8\v2.00\pic\include\pic18f24k40.h"
   174                           SSPSSPPS equ 0EB9h ;# 
   175  0000                     # 2048 "C:\Program Files (x86)\Microchip\xc8\v2.00\pic\include\pic18f24k40.h"
   176                           IPR0 equ 0EBAh ;# 
   177  0000                     # 2093 "C:\Program Files (x86)\Microchip\xc8\v2.00\pic\include\pic18f24k40.h"
   178                           IPR1 equ 0EBBh ;# 
   179  0000                     # 2141 "C:\Program Files (x86)\Microchip\xc8\v2.00\pic\include\pic18f24k40.h"
   180                           IPR2 equ 0EBCh ;# 
   181  0000                     # 2189 "C:\Program Files (x86)\Microchip\xc8\v2.00\pic\include\pic18f24k40.h"
   182                           IPR3 equ 0EBDh ;# 
   183  0000                     # 2258 "C:\Program Files (x86)\Microchip\xc8\v2.00\pic\include\pic18f24k40.h"
   184                           IPR4 equ 0EBEh ;# 
   185  0000                     # 2316 "C:\Program Files (x86)\Microchip\xc8\v2.00\pic\include\pic18f24k40.h"
   186                           IPR5 equ 0EBFh ;# 
   187  0000                     # 2362 "C:\Program Files (x86)\Microchip\xc8\v2.00\pic\include\pic18f24k40.h"
   188                           IPR6 equ 0EC0h ;# 
   189  0000                     # 2388 "C:\Program Files (x86)\Microchip\xc8\v2.00\pic\include\pic18f24k40.h"
   190                           IPR7 equ 0EC1h ;# 
   191  0000                     # 2435 "C:\Program Files (x86)\Microchip\xc8\v2.00\pic\include\pic18f24k40.h"
   192                           PIE0 equ 0EC2h ;# 
   193  0000                     # 2480 "C:\Program Files (x86)\Microchip\xc8\v2.00\pic\include\pic18f24k40.h"
   194                           PIE1 equ 0EC3h ;# 
   195  0000                     # 2528 "C:\Program Files (x86)\Microchip\xc8\v2.00\pic\include\pic18f24k40.h"
   196                           PIE2 equ 0EC4h ;# 
   197  0000                     # 2576 "C:\Program Files (x86)\Microchip\xc8\v2.00\pic\include\pic18f24k40.h"
   198                           PIE3 equ 0EC5h ;# 
   199  0000                     # 2679 "C:\Program Files (x86)\Microchip\xc8\v2.00\pic\include\pic18f24k40.h"
   200                           PIE4 equ 0EC6h ;# 
   201  0000                     # 2729 "C:\Program Files (x86)\Microchip\xc8\v2.00\pic\include\pic18f24k40.h"
   202                           PIE5 equ 0EC7h ;# 
   203  0000                     # 2761 "C:\Program Files (x86)\Microchip\xc8\v2.00\pic\include\pic18f24k40.h"
   204                           PIE6 equ 0EC8h ;# 
   205  0000                     # 2787 "C:\Program Files (x86)\Microchip\xc8\v2.00\pic\include\pic18f24k40.h"
   206                           PIE7 equ 0EC9h ;# 
   207  0000                     # 2834 "C:\Program Files (x86)\Microchip\xc8\v2.00\pic\include\pic18f24k40.h"
   208                           PIR0 equ 0ECAh ;# 
   209  0000                     # 2879 "C:\Program Files (x86)\Microchip\xc8\v2.00\pic\include\pic18f24k40.h"
   210                           PIR1 equ 0ECBh ;# 
   211  0000                     # 2927 "C:\Program Files (x86)\Microchip\xc8\v2.00\pic\include\pic18f24k40.h"
   212                           PIR2 equ 0ECCh ;# 
   213  0000                     # 2975 "C:\Program Files (x86)\Microchip\xc8\v2.00\pic\include\pic18f24k40.h"
   214                           PIR3 equ 0ECDh ;# 
   215  0000                     # 3057 "C:\Program Files (x86)\Microchip\xc8\v2.00\pic\include\pic18f24k40.h"
   216                           PIR4 equ 0ECEh ;# 
   217  0000                     # 3107 "C:\Program Files (x86)\Microchip\xc8\v2.00\pic\include\pic18f24k40.h"
   218                           PIR5 equ 0ECFh ;# 
   219  0000                     # 3139 "C:\Program Files (x86)\Microchip\xc8\v2.00\pic\include\pic18f24k40.h"
   220                           PIR6 equ 0ED0h ;# 
   221  0000                     # 3165 "C:\Program Files (x86)\Microchip\xc8\v2.00\pic\include\pic18f24k40.h"
   222                           PIR7 equ 0ED1h ;# 
   223  0000                     # 3212 "C:\Program Files (x86)\Microchip\xc8\v2.00\pic\include\pic18f24k40.h"
   224                           WDTCON0 equ 0ED2h ;# 
   225  0000                     # 3287 "C:\Program Files (x86)\Microchip\xc8\v2.00\pic\include\pic18f24k40.h"
   226                           WDTCON1 equ 0ED3h ;# 
   227  0000                     # 3381 "C:\Program Files (x86)\Microchip\xc8\v2.00\pic\include\pic18f24k40.h"
   228                           WDTPSL equ 0ED4h ;# 
   229  0000                     # 3509 "C:\Program Files (x86)\Microchip\xc8\v2.00\pic\include\pic18f24k40.h"
   230                           WDTPSH equ 0ED5h ;# 
   231  0000                     # 3637 "C:\Program Files (x86)\Microchip\xc8\v2.00\pic\include\pic18f24k40.h"
   232                           WDTTMR equ 0ED6h ;# 
   233  0000                     # 3725 "C:\Program Files (x86)\Microchip\xc8\v2.00\pic\include\pic18f24k40.h"
   234                           CPUDOZE equ 0ED7h ;# 
   235  0000                     # 3790 "C:\Program Files (x86)\Microchip\xc8\v2.00\pic\include\pic18f24k40.h"
   236                           OSCCON1 equ 0ED8h ;# 
   237  0000                     # 3860 "C:\Program Files (x86)\Microchip\xc8\v2.00\pic\include\pic18f24k40.h"
   238                           OSCCON2 equ 0ED9h ;# 
   239  0000                     # 3930 "C:\Program Files (x86)\Microchip\xc8\v2.00\pic\include\pic18f24k40.h"
   240                           OSCCON3 equ 0EDAh ;# 
   241  0000                     # 3970 "C:\Program Files (x86)\Microchip\xc8\v2.00\pic\include\pic18f24k40.h"
   242                           OSCSTAT equ 0EDBh ;# 
   243  0000                     # 3975 "C:\Program Files (x86)\Microchip\xc8\v2.00\pic\include\pic18f24k40.h"
   244                           OSCSTAT1 equ 0EDBh ;# 
   245  0000                     # 4082 "C:\Program Files (x86)\Microchip\xc8\v2.00\pic\include\pic18f24k40.h"
   246                           OSCEN equ 0EDCh ;# 
   247  0000                     # 4133 "C:\Program Files (x86)\Microchip\xc8\v2.00\pic\include\pic18f24k40.h"
   248                           OSCTUNE equ 0EDDh ;# 
   249  0000                     # 4191 "C:\Program Files (x86)\Microchip\xc8\v2.00\pic\include\pic18f24k40.h"
   250                           OSCFRQ equ 0EDEh ;# 
   251  0000                     # 4237 "C:\Program Files (x86)\Microchip\xc8\v2.00\pic\include\pic18f24k40.h"
   252                           VREGCON equ 0EDFh ;# 
   253  0000                     # 4271 "C:\Program Files (x86)\Microchip\xc8\v2.00\pic\include\pic18f24k40.h"
   254                           BORCON equ 0EE0h ;# 
   255  0000                     # 4298 "C:\Program Files (x86)\Microchip\xc8\v2.00\pic\include\pic18f24k40.h"
   256                           PMD0 equ 0EE1h ;# 
   257  0000                     # 4375 "C:\Program Files (x86)\Microchip\xc8\v2.00\pic\include\pic18f24k40.h"
   258                           PMD1 equ 0EE2h ;# 
   259  0000                     # 4439 "C:\Program Files (x86)\Microchip\xc8\v2.00\pic\include\pic18f24k40.h"
   260                           PMD2 equ 0EE3h ;# 
   261  0000                     # 4484 "C:\Program Files (x86)\Microchip\xc8\v2.00\pic\include\pic18f24k40.h"
   262                           PMD3 equ 0EE4h ;# 
   263  0000                     # 4522 "C:\Program Files (x86)\Microchip\xc8\v2.00\pic\include\pic18f24k40.h"
   264                           PMD4 equ 0EE5h ;# 
   265  0000                     # 4564 "C:\Program Files (x86)\Microchip\xc8\v2.00\pic\include\pic18f24k40.h"
   266                           PMD5 equ 0EE6h ;# 
   267  0000                     # 4584 "C:\Program Files (x86)\Microchip\xc8\v2.00\pic\include\pic18f24k40.h"
   268                           RA0PPS equ 0EE7h ;# 
   269  0000                     # 4628 "C:\Program Files (x86)\Microchip\xc8\v2.00\pic\include\pic18f24k40.h"
   270                           RA1PPS equ 0EE8h ;# 
   271  0000                     # 4672 "C:\Program Files (x86)\Microchip\xc8\v2.00\pic\include\pic18f24k40.h"
   272                           RA2PPS equ 0EE9h ;# 
   273  0000                     # 4716 "C:\Program Files (x86)\Microchip\xc8\v2.00\pic\include\pic18f24k40.h"
   274                           RA3PPS equ 0EEAh ;# 
   275  0000                     # 4760 "C:\Program Files (x86)\Microchip\xc8\v2.00\pic\include\pic18f24k40.h"
   276                           RA4PPS equ 0EEBh ;# 
   277  0000                     # 4804 "C:\Program Files (x86)\Microchip\xc8\v2.00\pic\include\pic18f24k40.h"
   278                           RA5PPS equ 0EECh ;# 
   279  0000                     # 4848 "C:\Program Files (x86)\Microchip\xc8\v2.00\pic\include\pic18f24k40.h"
   280                           RA6PPS equ 0EEDh ;# 
   281  0000                     # 4892 "C:\Program Files (x86)\Microchip\xc8\v2.00\pic\include\pic18f24k40.h"
   282                           RA7PPS equ 0EEEh ;# 
   283  0000                     # 4936 "C:\Program Files (x86)\Microchip\xc8\v2.00\pic\include\pic18f24k40.h"
   284                           RB0PPS equ 0EEFh ;# 
   285  0000                     # 4980 "C:\Program Files (x86)\Microchip\xc8\v2.00\pic\include\pic18f24k40.h"
   286                           RB1PPS equ 0EF0h ;# 
   287  0000                     # 5024 "C:\Program Files (x86)\Microchip\xc8\v2.00\pic\include\pic18f24k40.h"
   288                           RB2PPS equ 0EF1h ;# 
   289  0000                     # 5068 "C:\Program Files (x86)\Microchip\xc8\v2.00\pic\include\pic18f24k40.h"
   290                           RB3PPS equ 0EF2h ;# 
   291  0000                     # 5112 "C:\Program Files (x86)\Microchip\xc8\v2.00\pic\include\pic18f24k40.h"
   292                           RB4PPS equ 0EF3h ;# 
   293  0000                     # 5156 "C:\Program Files (x86)\Microchip\xc8\v2.00\pic\include\pic18f24k40.h"
   294                           RB5PPS equ 0EF4h ;# 
   295  0000                     # 5200 "C:\Program Files (x86)\Microchip\xc8\v2.00\pic\include\pic18f24k40.h"
   296                           RB6PPS equ 0EF5h ;# 
   297  0000                     # 5244 "C:\Program Files (x86)\Microchip\xc8\v2.00\pic\include\pic18f24k40.h"
   298                           RB7PPS equ 0EF6h ;# 
   299  0000                     # 5288 "C:\Program Files (x86)\Microchip\xc8\v2.00\pic\include\pic18f24k40.h"
   300                           RC0PPS equ 0EF7h ;# 
   301  0000                     # 5332 "C:\Program Files (x86)\Microchip\xc8\v2.00\pic\include\pic18f24k40.h"
   302                           RC1PPS equ 0EF8h ;# 
   303  0000                     # 5376 "C:\Program Files (x86)\Microchip\xc8\v2.00\pic\include\pic18f24k40.h"
   304                           RC2PPS equ 0EF9h ;# 
   305  0000                     # 5420 "C:\Program Files (x86)\Microchip\xc8\v2.00\pic\include\pic18f24k40.h"
   306                           RC3PPS equ 0EFAh ;# 
   307  0000                     # 5464 "C:\Program Files (x86)\Microchip\xc8\v2.00\pic\include\pic18f24k40.h"
   308                           RC4PPS equ 0EFBh ;# 
   309  0000                     # 5508 "C:\Program Files (x86)\Microchip\xc8\v2.00\pic\include\pic18f24k40.h"
   310                           RC5PPS equ 0EFCh ;# 
   311  0000                     # 5552 "C:\Program Files (x86)\Microchip\xc8\v2.00\pic\include\pic18f24k40.h"
   312                           RC6PPS equ 0EFDh ;# 
   313  0000                     # 5596 "C:\Program Files (x86)\Microchip\xc8\v2.00\pic\include\pic18f24k40.h"
   314                           RC7PPS equ 0EFEh ;# 
   315  0000                     # 5640 "C:\Program Files (x86)\Microchip\xc8\v2.00\pic\include\pic18f24k40.h"
   316                           IOCAF equ 0F0Ah ;# 
   317  0000                     # 5702 "C:\Program Files (x86)\Microchip\xc8\v2.00\pic\include\pic18f24k40.h"
   318                           IOCAN equ 0F0Bh ;# 
   319  0000                     # 5764 "C:\Program Files (x86)\Microchip\xc8\v2.00\pic\include\pic18f24k40.h"
   320                           IOCAP equ 0F0Ch ;# 
   321  0000                     # 5826 "C:\Program Files (x86)\Microchip\xc8\v2.00\pic\include\pic18f24k40.h"
   322                           INLVLA equ 0F0Dh ;# 
   323  0000                     # 5888 "C:\Program Files (x86)\Microchip\xc8\v2.00\pic\include\pic18f24k40.h"
   324                           SLRCONA equ 0F0Eh ;# 
   325  0000                     # 5950 "C:\Program Files (x86)\Microchip\xc8\v2.00\pic\include\pic18f24k40.h"
   326                           ODCONA equ 0F0Fh ;# 
   327  0000                     # 6012 "C:\Program Files (x86)\Microchip\xc8\v2.00\pic\include\pic18f24k40.h"
   328                           WPUA equ 0F10h ;# 
   329  0000                     # 6074 "C:\Program Files (x86)\Microchip\xc8\v2.00\pic\include\pic18f24k40.h"
   330                           ANSELA equ 0F11h ;# 
   331  0000                     # 6136 "C:\Program Files (x86)\Microchip\xc8\v2.00\pic\include\pic18f24k40.h"
   332                           IOCBF equ 0F12h ;# 
   333  0000                     # 6198 "C:\Program Files (x86)\Microchip\xc8\v2.00\pic\include\pic18f24k40.h"
   334                           IOCBN equ 0F13h ;# 
   335  0000                     # 6260 "C:\Program Files (x86)\Microchip\xc8\v2.00\pic\include\pic18f24k40.h"
   336                           IOCBP equ 0F14h ;# 
   337  0000                     # 6322 "C:\Program Files (x86)\Microchip\xc8\v2.00\pic\include\pic18f24k40.h"
   338                           INLVLB equ 0F15h ;# 
   339  0000                     # 6384 "C:\Program Files (x86)\Microchip\xc8\v2.00\pic\include\pic18f24k40.h"
   340                           SLRCONB equ 0F16h ;# 
   341  0000                     # 6446 "C:\Program Files (x86)\Microchip\xc8\v2.00\pic\include\pic18f24k40.h"
   342                           ODCONB equ 0F17h ;# 
   343  0000                     # 6508 "C:\Program Files (x86)\Microchip\xc8\v2.00\pic\include\pic18f24k40.h"
   344                           WPUB equ 0F18h ;# 
   345  0000                     # 6570 "C:\Program Files (x86)\Microchip\xc8\v2.00\pic\include\pic18f24k40.h"
   346                           ANSELB equ 0F19h ;# 
   347  0000                     # 6632 "C:\Program Files (x86)\Microchip\xc8\v2.00\pic\include\pic18f24k40.h"
   348                           IOCCF equ 0F1Ah ;# 
   349  0000                     # 6694 "C:\Program Files (x86)\Microchip\xc8\v2.00\pic\include\pic18f24k40.h"
   350                           IOCCN equ 0F1Bh ;# 
   351  0000                     # 6756 "C:\Program Files (x86)\Microchip\xc8\v2.00\pic\include\pic18f24k40.h"
   352                           IOCCP equ 0F1Ch ;# 
   353  0000                     # 6818 "C:\Program Files (x86)\Microchip\xc8\v2.00\pic\include\pic18f24k40.h"
   354                           INLVLC equ 0F1Dh ;# 
   355  0000                     # 6880 "C:\Program Files (x86)\Microchip\xc8\v2.00\pic\include\pic18f24k40.h"
   356                           SLRCONC equ 0F1Eh ;# 
   357  0000                     # 6942 "C:\Program Files (x86)\Microchip\xc8\v2.00\pic\include\pic18f24k40.h"
   358                           ODCONC equ 0F1Fh ;# 
   359  0000                     # 7004 "C:\Program Files (x86)\Microchip\xc8\v2.00\pic\include\pic18f24k40.h"
   360                           WPUC equ 0F20h ;# 
   361  0000                     # 7066 "C:\Program Files (x86)\Microchip\xc8\v2.00\pic\include\pic18f24k40.h"
   362                           ANSELC equ 0F21h ;# 
   363  0000                     # 7128 "C:\Program Files (x86)\Microchip\xc8\v2.00\pic\include\pic18f24k40.h"
   364                           IOCEF equ 0F27h ;# 
   365  0000                     # 7149 "C:\Program Files (x86)\Microchip\xc8\v2.00\pic\include\pic18f24k40.h"
   366                           IOCEN equ 0F28h ;# 
   367  0000                     # 7170 "C:\Program Files (x86)\Microchip\xc8\v2.00\pic\include\pic18f24k40.h"
   368                           IOCEP equ 0F29h ;# 
   369  0000                     # 7191 "C:\Program Files (x86)\Microchip\xc8\v2.00\pic\include\pic18f24k40.h"
   370                           INLVLE equ 0F2Ah ;# 
   371  0000                     # 7212 "C:\Program Files (x86)\Microchip\xc8\v2.00\pic\include\pic18f24k40.h"
   372                           WPUE equ 0F2Dh ;# 
   373  0000                     # 7233 "C:\Program Files (x86)\Microchip\xc8\v2.00\pic\include\pic18f24k40.h"
   374                           HLVDCON0 equ 0F2Fh ;# 
   375  0000                     # 7313 "C:\Program Files (x86)\Microchip\xc8\v2.00\pic\include\pic18f24k40.h"
   376                           HLVDCON1 equ 0F30h ;# 
   377  0000                     # 7385 "C:\Program Files (x86)\Microchip\xc8\v2.00\pic\include\pic18f24k40.h"
   378                           FVRCON equ 0F31h ;# 
   379  0000                     # 7474 "C:\Program Files (x86)\Microchip\xc8\v2.00\pic\include\pic18f24k40.h"
   380                           ZCDCON equ 0F32h ;# 
   381  0000                     # 7554 "C:\Program Files (x86)\Microchip\xc8\v2.00\pic\include\pic18f24k40.h"
   382                           DAC1CON0 equ 0F33h ;# 
   383  0000                     # 7655 "C:\Program Files (x86)\Microchip\xc8\v2.00\pic\include\pic18f24k40.h"
   384                           DAC1CON1 equ 0F34h ;# 
   385  0000                     # 7707 "C:\Program Files (x86)\Microchip\xc8\v2.00\pic\include\pic18f24k40.h"
   386                           CM2CON0 equ 0F35h ;# 
   387  0000                     # 7787 "C:\Program Files (x86)\Microchip\xc8\v2.00\pic\include\pic18f24k40.h"
   388                           CM2CON1 equ 0F36h ;# 
   389  0000                     # 7827 "C:\Program Files (x86)\Microchip\xc8\v2.00\pic\include\pic18f24k40.h"
   390                           CM2NCH equ 0F37h ;# 
   391  0000                     # 7887 "C:\Program Files (x86)\Microchip\xc8\v2.00\pic\include\pic18f24k40.h"
   392                           CM2PCH equ 0F38h ;# 
   393  0000                     # 7947 "C:\Program Files (x86)\Microchip\xc8\v2.00\pic\include\pic18f24k40.h"
   394                           CM1CON0 equ 0F39h ;# 
   395  0000                     # 8027 "C:\Program Files (x86)\Microchip\xc8\v2.00\pic\include\pic18f24k40.h"
   396                           CM1CON1 equ 0F3Ah ;# 
   397  0000                     # 8067 "C:\Program Files (x86)\Microchip\xc8\v2.00\pic\include\pic18f24k40.h"
   398                           CM1NCH equ 0F3Bh ;# 
   399  0000                     # 8127 "C:\Program Files (x86)\Microchip\xc8\v2.00\pic\include\pic18f24k40.h"
   400                           CM1PCH equ 0F3Ch ;# 
   401  0000                     # 8187 "C:\Program Files (x86)\Microchip\xc8\v2.00\pic\include\pic18f24k40.h"
   402                           CMOUT equ 0F3Dh ;# 
   403  0000                     # 8213 "C:\Program Files (x86)\Microchip\xc8\v2.00\pic\include\pic18f24k40.h"
   404                           CLKRCON equ 0F3Eh ;# 
   405  0000                     # 8317 "C:\Program Files (x86)\Microchip\xc8\v2.00\pic\include\pic18f24k40.h"
   406                           CLKRCLK equ 0F3Fh ;# 
   407  0000                     # 8377 "C:\Program Files (x86)\Microchip\xc8\v2.00\pic\include\pic18f24k40.h"
   408                           CWG1CLK equ 0F40h ;# 
   409  0000                     # 8382 "C:\Program Files (x86)\Microchip\xc8\v2.00\pic\include\pic18f24k40.h"
   410                           CWG1CLKCON equ 0F40h ;# 
   411  0000                     # 8431 "C:\Program Files (x86)\Microchip\xc8\v2.00\pic\include\pic18f24k40.h"
   412                           CWG1ISM equ 0F41h ;# 
   413  0000                     # 8477 "C:\Program Files (x86)\Microchip\xc8\v2.00\pic\include\pic18f24k40.h"
   414                           CWG1DBR equ 0F42h ;# 
   415  0000                     # 8581 "C:\Program Files (x86)\Microchip\xc8\v2.00\pic\include\pic18f24k40.h"
   416                           CWG1DBF equ 0F43h ;# 
   417  0000                     # 8685 "C:\Program Files (x86)\Microchip\xc8\v2.00\pic\include\pic18f24k40.h"
   418                           CWG1CON0 equ 0F44h ;# 
   419  0000                     # 8786 "C:\Program Files (x86)\Microchip\xc8\v2.00\pic\include\pic18f24k40.h"
   420                           CWG1CON1 equ 0F45h ;# 
   421  0000                     # 8864 "C:\Program Files (x86)\Microchip\xc8\v2.00\pic\include\pic18f24k40.h"
   422                           CWG1AS0 equ 0F46h ;# 
   423  0000                     # 8984 "C:\Program Files (x86)\Microchip\xc8\v2.00\pic\include\pic18f24k40.h"
   424                           CWG1AS1 equ 0F47h ;# 
   425  0000                     # 9034 "C:\Program Files (x86)\Microchip\xc8\v2.00\pic\include\pic18f24k40.h"
   426                           CWG1STR equ 0F48h ;# 
   427  0000                     # 9148 "C:\Program Files (x86)\Microchip\xc8\v2.00\pic\include\pic18f24k40.h"
   428                           SCANLADR equ 0F49h ;# 
   429  0000                     # 9155 "C:\Program Files (x86)\Microchip\xc8\v2.00\pic\include\pic18f24k40.h"
   430                           SCANLADRL equ 0F49h ;# 
   431  0000                     # 9283 "C:\Program Files (x86)\Microchip\xc8\v2.00\pic\include\pic18f24k40.h"
   432                           SCANLADRH equ 0F4Ah ;# 
   433  0000                     # 9411 "C:\Program Files (x86)\Microchip\xc8\v2.00\pic\include\pic18f24k40.h"
   434                           SCANLADRU equ 0F4Bh ;# 
   435  0000                     # 9517 "C:\Program Files (x86)\Microchip\xc8\v2.00\pic\include\pic18f24k40.h"
   436                           SCANHADR equ 0F4Ch ;# 
   437  0000                     # 9524 "C:\Program Files (x86)\Microchip\xc8\v2.00\pic\include\pic18f24k40.h"
   438                           SCANHADRL equ 0F4Ch ;# 
   439  0000                     # 9652 "C:\Program Files (x86)\Microchip\xc8\v2.00\pic\include\pic18f24k40.h"
   440                           SCANHADRH equ 0F4Dh ;# 
   441  0000                     # 9780 "C:\Program Files (x86)\Microchip\xc8\v2.00\pic\include\pic18f24k40.h"
   442                           SCANHADRU equ 0F4Eh ;# 
   443  0000                     # 9884 "C:\Program Files (x86)\Microchip\xc8\v2.00\pic\include\pic18f24k40.h"
   444                           SCANCON0 equ 0F4Fh ;# 
   445  0000                     # 10011 "C:\Program Files (x86)\Microchip\xc8\v2.00\pic\include\pic18f24k40.h"
   446                           SCANTRIG equ 0F50h ;# 
   447  0000                     # 10091 "C:\Program Files (x86)\Microchip\xc8\v2.00\pic\include\pic18f24k40.h"
   448                           MDCON0 equ 0F51h ;# 
   449  0000                     # 10159 "C:\Program Files (x86)\Microchip\xc8\v2.00\pic\include\pic18f24k40.h"
   450                           MDCON1 equ 0F52h ;# 
   451  0000                     # 10225 "C:\Program Files (x86)\Microchip\xc8\v2.00\pic\include\pic18f24k40.h"
   452                           MDSRC equ 0F53h ;# 
   453  0000                     # 10305 "C:\Program Files (x86)\Microchip\xc8\v2.00\pic\include\pic18f24k40.h"
   454                           MDCARL equ 0F54h ;# 
   455  0000                     # 10373 "C:\Program Files (x86)\Microchip\xc8\v2.00\pic\include\pic18f24k40.h"
   456                           MDCARH equ 0F55h ;# 
   457  0000                     # 10441 "C:\Program Files (x86)\Microchip\xc8\v2.00\pic\include\pic18f24k40.h"
   458                           ADACT equ 0F56h ;# 
   459  0000                     # 10493 "C:\Program Files (x86)\Microchip\xc8\v2.00\pic\include\pic18f24k40.h"
   460                           ADCLK equ 0F57h ;# 
   461  0000                     # 10551 "C:\Program Files (x86)\Microchip\xc8\v2.00\pic\include\pic18f24k40.h"
   462                           ADREF equ 0F58h ;# 
   463  0000                     # 10592 "C:\Program Files (x86)\Microchip\xc8\v2.00\pic\include\pic18f24k40.h"
   464                           ADCON1 equ 0F59h ;# 
   465  0000                     # 10631 "C:\Program Files (x86)\Microchip\xc8\v2.00\pic\include\pic18f24k40.h"
   466                           ADCON2 equ 0F5Ah ;# 
   467  0000                     # 10708 "C:\Program Files (x86)\Microchip\xc8\v2.00\pic\include\pic18f24k40.h"
   468                           ADCON3 equ 0F5Bh ;# 
   469  0000                     # 10779 "C:\Program Files (x86)\Microchip\xc8\v2.00\pic\include\pic18f24k40.h"
   470                           ADACQ equ 0F5Ch ;# 
   471  0000                     # 10849 "C:\Program Files (x86)\Microchip\xc8\v2.00\pic\include\pic18f24k40.h"
   472                           ADCAP equ 0F5Dh ;# 
   473  0000                     # 10901 "C:\Program Files (x86)\Microchip\xc8\v2.00\pic\include\pic18f24k40.h"
   474                           ADPRE equ 0F5Eh ;# 
   475  0000                     # 10971 "C:\Program Files (x86)\Microchip\xc8\v2.00\pic\include\pic18f24k40.h"
   476                           ADPCH equ 0F5Fh ;# 
   477  0000                     # 11029 "C:\Program Files (x86)\Microchip\xc8\v2.00\pic\include\pic18f24k40.h"
   478                           ADCON0 equ 0F60h ;# 
   479  0000                     # 11124 "C:\Program Files (x86)\Microchip\xc8\v2.00\pic\include\pic18f24k40.h"
   480                           ADPREV equ 0F61h ;# 
   481  0000                     # 11131 "C:\Program Files (x86)\Microchip\xc8\v2.00\pic\include\pic18f24k40.h"
   482                           ADPREVL equ 0F61h ;# 
   483  0000                     # 11201 "C:\Program Files (x86)\Microchip\xc8\v2.00\pic\include\pic18f24k40.h"
   484                           ADPREVH equ 0F62h ;# 
   485  0000                     # 11271 "C:\Program Files (x86)\Microchip\xc8\v2.00\pic\include\pic18f24k40.h"
   486                           ADRES equ 0F63h ;# 
   487  0000                     # 11278 "C:\Program Files (x86)\Microchip\xc8\v2.00\pic\include\pic18f24k40.h"
   488                           ADRESL equ 0F63h ;# 
   489  0000                     # 11348 "C:\Program Files (x86)\Microchip\xc8\v2.00\pic\include\pic18f24k40.h"
   490                           ADRESH equ 0F64h ;# 
   491  0000                     # 11410 "C:\Program Files (x86)\Microchip\xc8\v2.00\pic\include\pic18f24k40.h"
   492                           ADSTAT equ 0F65h ;# 
   493  0000                     # 11475 "C:\Program Files (x86)\Microchip\xc8\v2.00\pic\include\pic18f24k40.h"
   494                           ADRPT equ 0F66h ;# 
   495  0000                     # 11545 "C:\Program Files (x86)\Microchip\xc8\v2.00\pic\include\pic18f24k40.h"
   496                           ADCNT equ 0F67h ;# 
   497  0000                     # 11615 "C:\Program Files (x86)\Microchip\xc8\v2.00\pic\include\pic18f24k40.h"
   498                           ADSTPT equ 0F68h ;# 
   499  0000                     # 11622 "C:\Program Files (x86)\Microchip\xc8\v2.00\pic\include\pic18f24k40.h"
   500                           ADSTPTL equ 0F68h ;# 
   501  0000                     # 11692 "C:\Program Files (x86)\Microchip\xc8\v2.00\pic\include\pic18f24k40.h"
   502                           ADSTPTH equ 0F69h ;# 
   503  0000                     # 11762 "C:\Program Files (x86)\Microchip\xc8\v2.00\pic\include\pic18f24k40.h"
   504                           ADLTH equ 0F6Ah ;# 
   505  0000                     # 11769 "C:\Program Files (x86)\Microchip\xc8\v2.00\pic\include\pic18f24k40.h"
   506                           ADLTHL equ 0F6Ah ;# 
   507  0000                     # 11839 "C:\Program Files (x86)\Microchip\xc8\v2.00\pic\include\pic18f24k40.h"
   508                           ADLTHH equ 0F6Bh ;# 
   509  0000                     # 11909 "C:\Program Files (x86)\Microchip\xc8\v2.00\pic\include\pic18f24k40.h"
   510                           ADUTH equ 0F6Ch ;# 
   511  0000                     # 11916 "C:\Program Files (x86)\Microchip\xc8\v2.00\pic\include\pic18f24k40.h"
   512                           ADUTHL equ 0F6Ch ;# 
   513  0000                     # 11986 "C:\Program Files (x86)\Microchip\xc8\v2.00\pic\include\pic18f24k40.h"
   514                           ADUTHH equ 0F6Dh ;# 
   515  0000                     # 12056 "C:\Program Files (x86)\Microchip\xc8\v2.00\pic\include\pic18f24k40.h"
   516                           ADERR equ 0F6Eh ;# 
   517  0000                     # 12063 "C:\Program Files (x86)\Microchip\xc8\v2.00\pic\include\pic18f24k40.h"
   518                           ADERRL equ 0F6Eh ;# 
   519  0000                     # 12133 "C:\Program Files (x86)\Microchip\xc8\v2.00\pic\include\pic18f24k40.h"
   520                           ADERRH equ 0F6Fh ;# 
   521  0000                     # 12203 "C:\Program Files (x86)\Microchip\xc8\v2.00\pic\include\pic18f24k40.h"
   522                           ADACC equ 0F70h ;# 
   523  0000                     # 12210 "C:\Program Files (x86)\Microchip\xc8\v2.00\pic\include\pic18f24k40.h"
   524                           ADACCL equ 0F70h ;# 
   525  0000                     # 12280 "C:\Program Files (x86)\Microchip\xc8\v2.00\pic\include\pic18f24k40.h"
   526                           ADACCH equ 0F71h ;# 
   527  0000                     # 12350 "C:\Program Files (x86)\Microchip\xc8\v2.00\pic\include\pic18f24k40.h"
   528                           ADFLTR equ 0F72h ;# 
   529  0000                     # 12357 "C:\Program Files (x86)\Microchip\xc8\v2.00\pic\include\pic18f24k40.h"
   530                           ADFLTRL equ 0F72h ;# 
   531  0000                     # 12427 "C:\Program Files (x86)\Microchip\xc8\v2.00\pic\include\pic18f24k40.h"
   532                           ADFLTRH equ 0F73h ;# 
   533  0000                     # 12497 "C:\Program Files (x86)\Microchip\xc8\v2.00\pic\include\pic18f24k40.h"
   534                           CRCDATA equ 0F74h ;# 
   535  0000                     # 12504 "C:\Program Files (x86)\Microchip\xc8\v2.00\pic\include\pic18f24k40.h"
   536                           CRCDATL equ 0F74h ;# 
   537  0000                     # 12566 "C:\Program Files (x86)\Microchip\xc8\v2.00\pic\include\pic18f24k40.h"
   538                           CRCDATH equ 0F75h ;# 
   539  0000                     # 12628 "C:\Program Files (x86)\Microchip\xc8\v2.00\pic\include\pic18f24k40.h"
   540                           CRCACC equ 0F76h ;# 
   541  0000                     # 12635 "C:\Program Files (x86)\Microchip\xc8\v2.00\pic\include\pic18f24k40.h"
   542                           CRCACCL equ 0F76h ;# 
   543  0000                     # 12697 "C:\Program Files (x86)\Microchip\xc8\v2.00\pic\include\pic18f24k40.h"
   544                           CRCACCH equ 0F77h ;# 
   545  0000                     # 12759 "C:\Program Files (x86)\Microchip\xc8\v2.00\pic\include\pic18f24k40.h"
   546                           CRCSHFT equ 0F78h ;# 
   547  0000                     # 12766 "C:\Program Files (x86)\Microchip\xc8\v2.00\pic\include\pic18f24k40.h"
   548                           CRCSHIFTL equ 0F78h ;# 
   549  0000                     # 12828 "C:\Program Files (x86)\Microchip\xc8\v2.00\pic\include\pic18f24k40.h"
   550                           CRCSHIFTH equ 0F79h ;# 
   551  0000                     # 12890 "C:\Program Files (x86)\Microchip\xc8\v2.00\pic\include\pic18f24k40.h"
   552                           CRCXOR equ 0F7Ah ;# 
   553  0000                     # 12897 "C:\Program Files (x86)\Microchip\xc8\v2.00\pic\include\pic18f24k40.h"
   554                           CRCXORL equ 0F7Ah ;# 
   555  0000                     # 12954 "C:\Program Files (x86)\Microchip\xc8\v2.00\pic\include\pic18f24k40.h"
   556                           CRCXORH equ 0F7Bh ;# 
   557  0000                     # 13016 "C:\Program Files (x86)\Microchip\xc8\v2.00\pic\include\pic18f24k40.h"
   558                           CRCCON0 equ 0F7Ch ;# 
   559  0000                     # 13076 "C:\Program Files (x86)\Microchip\xc8\v2.00\pic\include\pic18f24k40.h"
   560                           CRCCON1 equ 0F7Dh ;# 
   561  0000                     # 13152 "C:\Program Files (x86)\Microchip\xc8\v2.00\pic\include\pic18f24k40.h"
   562                           NVMADR equ 0F7Eh ;# 
   563  0000                     # 13157 "C:\Program Files (x86)\Microchip\xc8\v2.00\pic\include\pic18f24k40.h"
   564                           NVMADRL equ 0F7Eh ;# 
   565  0000                     # 13406 "C:\Program Files (x86)\Microchip\xc8\v2.00\pic\include\pic18f24k40.h"
   566                           NVMDAT equ 0F80h ;# 
   567  0000                     # 13476 "C:\Program Files (x86)\Microchip\xc8\v2.00\pic\include\pic18f24k40.h"
   568                           NVMCON1 equ 0F81h ;# 
   569  0000                     # 13542 "C:\Program Files (x86)\Microchip\xc8\v2.00\pic\include\pic18f24k40.h"
   570                           NVMCON2 equ 0F82h ;# 
   571  0000                     # 13562 "C:\Program Files (x86)\Microchip\xc8\v2.00\pic\include\pic18f24k40.h"
   572                           LATA equ 0F83h ;# 
   573  0000                     # 13674 "C:\Program Files (x86)\Microchip\xc8\v2.00\pic\include\pic18f24k40.h"
   574                           LATB equ 0F84h ;# 
   575  0000                     # 13786 "C:\Program Files (x86)\Microchip\xc8\v2.00\pic\include\pic18f24k40.h"
   576                           LATC equ 0F85h ;# 
   577  0000                     # 13898 "C:\Program Files (x86)\Microchip\xc8\v2.00\pic\include\pic18f24k40.h"
   578                           TRISA equ 0F88h ;# 
   579  0000                     # 13903 "C:\Program Files (x86)\Microchip\xc8\v2.00\pic\include\pic18f24k40.h"
   580                           DDRA equ 0F88h ;# 
   581  0000                     # 14020 "C:\Program Files (x86)\Microchip\xc8\v2.00\pic\include\pic18f24k40.h"
   582                           TRISB equ 0F89h ;# 
   583  0000                     # 14025 "C:\Program Files (x86)\Microchip\xc8\v2.00\pic\include\pic18f24k40.h"
   584                           DDRB equ 0F89h ;# 
   585  0000                     # 14142 "C:\Program Files (x86)\Microchip\xc8\v2.00\pic\include\pic18f24k40.h"
   586                           TRISC equ 0F8Ah ;# 
   587  0000                     # 14147 "C:\Program Files (x86)\Microchip\xc8\v2.00\pic\include\pic18f24k40.h"
   588                           DDRC equ 0F8Ah ;# 
   589  0000                     # 14264 "C:\Program Files (x86)\Microchip\xc8\v2.00\pic\include\pic18f24k40.h"
   590                           PORTA equ 0F8Dh ;# 
   591  0000                     # 14348 "C:\Program Files (x86)\Microchip\xc8\v2.00\pic\include\pic18f24k40.h"
   592                           PORTB equ 0F8Eh ;# 
   593  0000                     # 14419 "C:\Program Files (x86)\Microchip\xc8\v2.00\pic\include\pic18f24k40.h"
   594                           PORTC equ 0F8Fh ;# 
   595  0000                     # 14505 "C:\Program Files (x86)\Microchip\xc8\v2.00\pic\include\pic18f24k40.h"
   596                           PORTE equ 0F91h ;# 
   597  0000                     # 14544 "C:\Program Files (x86)\Microchip\xc8\v2.00\pic\include\pic18f24k40.h"
   598                           SSP1BUF equ 0F92h ;# 
   599  0000                     # 14564 "C:\Program Files (x86)\Microchip\xc8\v2.00\pic\include\pic18f24k40.h"
   600                           SSP1ADD equ 0F93h ;# 
   601  0000                     # 14684 "C:\Program Files (x86)\Microchip\xc8\v2.00\pic\include\pic18f24k40.h"
   602                           SSP1MSK equ 0F94h ;# 
   603  0000                     # 14754 "C:\Program Files (x86)\Microchip\xc8\v2.00\pic\include\pic18f24k40.h"
   604                           SSP1STAT equ 0F95h ;# 
   605  0000                     # 15208 "C:\Program Files (x86)\Microchip\xc8\v2.00\pic\include\pic18f24k40.h"
   606                           SSP1CON1 equ 0F96h ;# 
   607  0000                     # 15328 "C:\Program Files (x86)\Microchip\xc8\v2.00\pic\include\pic18f24k40.h"
   608                           SSP1CON2 equ 0F97h ;# 
   609  0000                     # 15515 "C:\Program Files (x86)\Microchip\xc8\v2.00\pic\include\pic18f24k40.h"
   610                           SSP1CON3 equ 0F98h ;# 
   611  0000                     # 15577 "C:\Program Files (x86)\Microchip\xc8\v2.00\pic\include\pic18f24k40.h"
   612                           RC1REG equ 0F99h ;# 
   613  0000                     # 15582 "C:\Program Files (x86)\Microchip\xc8\v2.00\pic\include\pic18f24k40.h"
   614                           RCREG equ 0F99h ;# 
   615  0000                     # 15586 "C:\Program Files (x86)\Microchip\xc8\v2.00\pic\include\pic18f24k40.h"
   616                           RCREG1 equ 0F99h ;# 
   617  0000                     # 15631 "C:\Program Files (x86)\Microchip\xc8\v2.00\pic\include\pic18f24k40.h"
   618                           TX1REG equ 0F9Ah ;# 
   619  0000                     # 15636 "C:\Program Files (x86)\Microchip\xc8\v2.00\pic\include\pic18f24k40.h"
   620                           TXREG1 equ 0F9Ah ;# 
   621  0000                     # 15640 "C:\Program Files (x86)\Microchip\xc8\v2.00\pic\include\pic18f24k40.h"
   622                           TXREG equ 0F9Ah ;# 
   623  0000                     # 15685 "C:\Program Files (x86)\Microchip\xc8\v2.00\pic\include\pic18f24k40.h"
   624                           SP1BRG equ 0F9Bh ;# 
   625  0000                     # 15692 "C:\Program Files (x86)\Microchip\xc8\v2.00\pic\include\pic18f24k40.h"
   626                           SP1BRGL equ 0F9Bh ;# 
   627  0000                     # 15697 "C:\Program Files (x86)\Microchip\xc8\v2.00\pic\include\pic18f24k40.h"
   628                           SPBRG equ 0F9Bh ;# 
   629  0000                     # 15701 "C:\Program Files (x86)\Microchip\xc8\v2.00\pic\include\pic18f24k40.h"
   630                           SPBRG1 equ 0F9Bh ;# 
   631  0000                     # 15705 "C:\Program Files (x86)\Microchip\xc8\v2.00\pic\include\pic18f24k40.h"
   632                           SPBRGL equ 0F9Bh ;# 
   633  0000                     # 15762 "C:\Program Files (x86)\Microchip\xc8\v2.00\pic\include\pic18f24k40.h"
   634                           SP1BRGH equ 0F9Ch ;# 
   635  0000                     # 15767 "C:\Program Files (x86)\Microchip\xc8\v2.00\pic\include\pic18f24k40.h"
   636                           SPBRGH equ 0F9Ch ;# 
   637  0000                     # 15771 "C:\Program Files (x86)\Microchip\xc8\v2.00\pic\include\pic18f24k40.h"
   638                           SPBRGH1 equ 0F9Ch ;# 
   639  0000                     # 15816 "C:\Program Files (x86)\Microchip\xc8\v2.00\pic\include\pic18f24k40.h"
   640                           RC1STA equ 0F9Dh ;# 
   641  0000                     # 15821 "C:\Program Files (x86)\Microchip\xc8\v2.00\pic\include\pic18f24k40.h"
   642                           RCSTA1 equ 0F9Dh ;# 
   643  0000                     # 15825 "C:\Program Files (x86)\Microchip\xc8\v2.00\pic\include\pic18f24k40.h"
   644                           RCSTA equ 0F9Dh ;# 
   645  0000                     # 16101 "C:\Program Files (x86)\Microchip\xc8\v2.00\pic\include\pic18f24k40.h"
   646                           TX1STA equ 0F9Eh ;# 
   647  0000                     # 16106 "C:\Program Files (x86)\Microchip\xc8\v2.00\pic\include\pic18f24k40.h"
   648                           TXSTA1 equ 0F9Eh ;# 
   649  0000                     # 16110 "C:\Program Files (x86)\Microchip\xc8\v2.00\pic\include\pic18f24k40.h"
   650                           TXSTA equ 0F9Eh ;# 
   651  0000                     # 16545 "C:\Program Files (x86)\Microchip\xc8\v2.00\pic\include\pic18f24k40.h"
   652                           BAUD1CON equ 0F9Fh ;# 
   653  0000                     # 16550 "C:\Program Files (x86)\Microchip\xc8\v2.00\pic\include\pic18f24k40.h"
   654                           BAUDCON1 equ 0F9Fh ;# 
   655  0000                     # 16554 "C:\Program Files (x86)\Microchip\xc8\v2.00\pic\include\pic18f24k40.h"
   656                           BAUDCTL1 equ 0F9Fh ;# 
   657  0000                     # 16558 "C:\Program Files (x86)\Microchip\xc8\v2.00\pic\include\pic18f24k40.h"
   658                           BAUDCON equ 0F9Fh ;# 
   659  0000                     # 16562 "C:\Program Files (x86)\Microchip\xc8\v2.00\pic\include\pic18f24k40.h"
   660                           BAUDCTL equ 0F9Fh ;# 
   661  0000                     # 17326 "C:\Program Files (x86)\Microchip\xc8\v2.00\pic\include\pic18f24k40.h"
   662                           PWM4DC equ 0FA0h ;# 
   663  0000                     # 17333 "C:\Program Files (x86)\Microchip\xc8\v2.00\pic\include\pic18f24k40.h"
   664                           PWM4DCL equ 0FA0h ;# 
   665  0000                     # 17399 "C:\Program Files (x86)\Microchip\xc8\v2.00\pic\include\pic18f24k40.h"
   666                           PWM4DCH equ 0FA1h ;# 
   667  0000                     # 17569 "C:\Program Files (x86)\Microchip\xc8\v2.00\pic\include\pic18f24k40.h"
   668                           PWM4CON equ 0FA2h ;# 
   669  0000                     # 17625 "C:\Program Files (x86)\Microchip\xc8\v2.00\pic\include\pic18f24k40.h"
   670                           PWM3DC equ 0FA3h ;# 
   671  0000                     # 17632 "C:\Program Files (x86)\Microchip\xc8\v2.00\pic\include\pic18f24k40.h"
   672                           PWM3DCL equ 0FA3h ;# 
   673  0000                     # 17698 "C:\Program Files (x86)\Microchip\xc8\v2.00\pic\include\pic18f24k40.h"
   674                           PWM3DCH equ 0FA4h ;# 
   675  0000                     # 17868 "C:\Program Files (x86)\Microchip\xc8\v2.00\pic\include\pic18f24k40.h"
   676                           PWM3CON equ 0FA5h ;# 
   677  0000                     # 17924 "C:\Program Files (x86)\Microchip\xc8\v2.00\pic\include\pic18f24k40.h"
   678                           CCPR2 equ 0FA6h ;# 
   679  0000                     # 17931 "C:\Program Files (x86)\Microchip\xc8\v2.00\pic\include\pic18f24k40.h"
   680                           CCPR2L equ 0FA6h ;# 
   681  0000                     # 17951 "C:\Program Files (x86)\Microchip\xc8\v2.00\pic\include\pic18f24k40.h"
   682                           CCPR2H equ 0FA7h ;# 
   683  0000                     # 17971 "C:\Program Files (x86)\Microchip\xc8\v2.00\pic\include\pic18f24k40.h"
   684                           CCP2CON equ 0FA8h ;# 
   685  0000                     # 18098 "C:\Program Files (x86)\Microchip\xc8\v2.00\pic\include\pic18f24k40.h"
   686                           CCP2CAP equ 0FA9h ;# 
   687  0000                     # 18154 "C:\Program Files (x86)\Microchip\xc8\v2.00\pic\include\pic18f24k40.h"
   688                           CCPR1 equ 0FAAh ;# 
   689  0000                     # 18161 "C:\Program Files (x86)\Microchip\xc8\v2.00\pic\include\pic18f24k40.h"
   690                           CCPR1L equ 0FAAh ;# 
   691  0000                     # 18181 "C:\Program Files (x86)\Microchip\xc8\v2.00\pic\include\pic18f24k40.h"
   692                           CCPR1H equ 0FABh ;# 
   693  0000                     # 18201 "C:\Program Files (x86)\Microchip\xc8\v2.00\pic\include\pic18f24k40.h"
   694                           CCP1CON equ 0FACh ;# 
   695  0000                     # 18328 "C:\Program Files (x86)\Microchip\xc8\v2.00\pic\include\pic18f24k40.h"
   696                           CCP1CAP equ 0FADh ;# 
   697  0000                     # 18384 "C:\Program Files (x86)\Microchip\xc8\v2.00\pic\include\pic18f24k40.h"
   698                           CCPTMRS equ 0FAEh ;# 
   699  0000                     # 18472 "C:\Program Files (x86)\Microchip\xc8\v2.00\pic\include\pic18f24k40.h"
   700                           T6TMR equ 0FAFh ;# 
   701  0000                     # 18477 "C:\Program Files (x86)\Microchip\xc8\v2.00\pic\include\pic18f24k40.h"
   702                           TMR6 equ 0FAFh ;# 
   703  0000                     # 18510 "C:\Program Files (x86)\Microchip\xc8\v2.00\pic\include\pic18f24k40.h"
   704                           T6PR equ 0FB0h ;# 
   705  0000                     # 18515 "C:\Program Files (x86)\Microchip\xc8\v2.00\pic\include\pic18f24k40.h"
   706                           PR6 equ 0FB0h ;# 
   707  0000                     # 18548 "C:\Program Files (x86)\Microchip\xc8\v2.00\pic\include\pic18f24k40.h"
   708                           T6CON equ 0FB1h ;# 
   709  0000                     # 18694 "C:\Program Files (x86)\Microchip\xc8\v2.00\pic\include\pic18f24k40.h"
   710                           T6HLT equ 0FB2h ;# 
   711  0000                     # 18822 "C:\Program Files (x86)\Microchip\xc8\v2.00\pic\include\pic18f24k40.h"
   712                           T6CLKCON equ 0FB3h ;# 
   713  0000                     # 18827 "C:\Program Files (x86)\Microchip\xc8\v2.00\pic\include\pic18f24k40.h"
   714                           T6CLK equ 0FB3h ;# 
   715  0000                     # 18980 "C:\Program Files (x86)\Microchip\xc8\v2.00\pic\include\pic18f24k40.h"
   716                           T6RST equ 0FB4h ;# 
   717  0000                     # 19060 "C:\Program Files (x86)\Microchip\xc8\v2.00\pic\include\pic18f24k40.h"
   718                           T4TMR equ 0FB5h ;# 
   719  0000                     # 19065 "C:\Program Files (x86)\Microchip\xc8\v2.00\pic\include\pic18f24k40.h"
   720                           TMR4 equ 0FB5h ;# 
   721  0000                     # 19098 "C:\Program Files (x86)\Microchip\xc8\v2.00\pic\include\pic18f24k40.h"
   722                           T4PR equ 0FB6h ;# 
   723  0000                     # 19103 "C:\Program Files (x86)\Microchip\xc8\v2.00\pic\include\pic18f24k40.h"
   724                           PR4 equ 0FB6h ;# 
   725  0000                     # 19136 "C:\Program Files (x86)\Microchip\xc8\v2.00\pic\include\pic18f24k40.h"
   726                           T4CON equ 0FB7h ;# 
   727  0000                     # 19282 "C:\Program Files (x86)\Microchip\xc8\v2.00\pic\include\pic18f24k40.h"
   728                           T4HLT equ 0FB8h ;# 
   729  0000                     # 19410 "C:\Program Files (x86)\Microchip\xc8\v2.00\pic\include\pic18f24k40.h"
   730                           T4CLKCON equ 0FB9h ;# 
   731  0000                     # 19415 "C:\Program Files (x86)\Microchip\xc8\v2.00\pic\include\pic18f24k40.h"
   732                           T4CLK equ 0FB9h ;# 
   733  0000                     # 19568 "C:\Program Files (x86)\Microchip\xc8\v2.00\pic\include\pic18f24k40.h"
   734                           T4RST equ 0FBAh ;# 
   735  0000                     # 19648 "C:\Program Files (x86)\Microchip\xc8\v2.00\pic\include\pic18f24k40.h"
   736                           T2TMR equ 0FBBh ;# 
   737  0000                     # 19653 "C:\Program Files (x86)\Microchip\xc8\v2.00\pic\include\pic18f24k40.h"
   738                           TMR2 equ 0FBBh ;# 
   739  0000                     # 19686 "C:\Program Files (x86)\Microchip\xc8\v2.00\pic\include\pic18f24k40.h"
   740                           T2PR equ 0FBCh ;# 
   741  0000                     # 19691 "C:\Program Files (x86)\Microchip\xc8\v2.00\pic\include\pic18f24k40.h"
   742                           PR2 equ 0FBCh ;# 
   743  0000                     # 19724 "C:\Program Files (x86)\Microchip\xc8\v2.00\pic\include\pic18f24k40.h"
   744                           T2CON equ 0FBDh ;# 
   745  0000                     # 19870 "C:\Program Files (x86)\Microchip\xc8\v2.00\pic\include\pic18f24k40.h"
   746                           T2HLT equ 0FBEh ;# 
   747  0000                     # 19998 "C:\Program Files (x86)\Microchip\xc8\v2.00\pic\include\pic18f24k40.h"
   748                           T2CLKCON equ 0FBFh ;# 
   749  0000                     # 20003 "C:\Program Files (x86)\Microchip\xc8\v2.00\pic\include\pic18f24k40.h"
   750                           T2CLK equ 0FBFh ;# 
   751  0000                     # 20156 "C:\Program Files (x86)\Microchip\xc8\v2.00\pic\include\pic18f24k40.h"
   752                           T2RST equ 0FC0h ;# 
   753  0000                     # 20236 "C:\Program Files (x86)\Microchip\xc8\v2.00\pic\include\pic18f24k40.h"
   754                           TMR5 equ 0FC1h ;# 
   755  0000                     # 20243 "C:\Program Files (x86)\Microchip\xc8\v2.00\pic\include\pic18f24k40.h"
   756                           TMR5L equ 0FC1h ;# 
   757  0000                     # 20413 "C:\Program Files (x86)\Microchip\xc8\v2.00\pic\include\pic18f24k40.h"
   758                           TMR5H equ 0FC2h ;# 
   759  0000                     # 20533 "C:\Program Files (x86)\Microchip\xc8\v2.00\pic\include\pic18f24k40.h"
   760                           T5CON equ 0FC3h ;# 
   761  0000                     # 20647 "C:\Program Files (x86)\Microchip\xc8\v2.00\pic\include\pic18f24k40.h"
   762                           T5GCON equ 0FC4h ;# 
   763  0000                     # 20652 "C:\Program Files (x86)\Microchip\xc8\v2.00\pic\include\pic18f24k40.h"
   764                           PR5 equ 0FC4h ;# 
   765  0000                     # 20879 "C:\Program Files (x86)\Microchip\xc8\v2.00\pic\include\pic18f24k40.h"
   766                           T5GATE equ 0FC5h ;# 
   767  0000                     # 20884 "C:\Program Files (x86)\Microchip\xc8\v2.00\pic\include\pic18f24k40.h"
   768                           TMR5GATE equ 0FC5h ;# 
   769  0000                     # 21021 "C:\Program Files (x86)\Microchip\xc8\v2.00\pic\include\pic18f24k40.h"
   770                           T5CLK equ 0FC6h ;# 
   771  0000                     # 21026 "C:\Program Files (x86)\Microchip\xc8\v2.00\pic\include\pic18f24k40.h"
   772                           TMR5CLK equ 0FC6h ;# 
   773  0000                     # 21163 "C:\Program Files (x86)\Microchip\xc8\v2.00\pic\include\pic18f24k40.h"
   774                           TMR3 equ 0FC7h ;# 
   775  0000                     # 21170 "C:\Program Files (x86)\Microchip\xc8\v2.00\pic\include\pic18f24k40.h"
   776                           TMR3L equ 0FC7h ;# 
   777  0000                     # 21340 "C:\Program Files (x86)\Microchip\xc8\v2.00\pic\include\pic18f24k40.h"
   778                           TMR3H equ 0FC8h ;# 
   779  0000                     # 21460 "C:\Program Files (x86)\Microchip\xc8\v2.00\pic\include\pic18f24k40.h"
   780                           T3CON equ 0FC9h ;# 
   781  0000                     # 21574 "C:\Program Files (x86)\Microchip\xc8\v2.00\pic\include\pic18f24k40.h"
   782                           T3GCON equ 0FCAh ;# 
   783  0000                     # 21579 "C:\Program Files (x86)\Microchip\xc8\v2.00\pic\include\pic18f24k40.h"
   784                           PR3 equ 0FCAh ;# 
   785  0000                     # 21806 "C:\Program Files (x86)\Microchip\xc8\v2.00\pic\include\pic18f24k40.h"
   786                           T3GATE equ 0FCBh ;# 
   787  0000                     # 21811 "C:\Program Files (x86)\Microchip\xc8\v2.00\pic\include\pic18f24k40.h"
   788                           TMR3GATE equ 0FCBh ;# 
   789  0000                     # 21948 "C:\Program Files (x86)\Microchip\xc8\v2.00\pic\include\pic18f24k40.h"
   790                           T3CLK equ 0FCCh ;# 
   791  0000                     # 21953 "C:\Program Files (x86)\Microchip\xc8\v2.00\pic\include\pic18f24k40.h"
   792                           TMR3CLK equ 0FCCh ;# 
   793  0000                     # 22090 "C:\Program Files (x86)\Microchip\xc8\v2.00\pic\include\pic18f24k40.h"
   794                           TMR1 equ 0FCDh ;# 
   795  0000                     # 22097 "C:\Program Files (x86)\Microchip\xc8\v2.00\pic\include\pic18f24k40.h"
   796                           TMR1L equ 0FCDh ;# 
   797  0000                     # 22267 "C:\Program Files (x86)\Microchip\xc8\v2.00\pic\include\pic18f24k40.h"
   798                           TMR1H equ 0FCEh ;# 
   799  0000                     # 22387 "C:\Program Files (x86)\Microchip\xc8\v2.00\pic\include\pic18f24k40.h"
   800                           T1CON equ 0FCFh ;# 
   801  0000                     # 22501 "C:\Program Files (x86)\Microchip\xc8\v2.00\pic\include\pic18f24k40.h"
   802                           T1GCON equ 0FD0h ;# 
   803  0000                     # 22506 "C:\Program Files (x86)\Microchip\xc8\v2.00\pic\include\pic18f24k40.h"
   804                           PR1 equ 0FD0h ;# 
   805  0000                     # 22733 "C:\Program Files (x86)\Microchip\xc8\v2.00\pic\include\pic18f24k40.h"
   806                           T1GATE equ 0FD1h ;# 
   807  0000                     # 22738 "C:\Program Files (x86)\Microchip\xc8\v2.00\pic\include\pic18f24k40.h"
   808                           TMR1GATE equ 0FD1h ;# 
   809  0000                     # 22875 "C:\Program Files (x86)\Microchip\xc8\v2.00\pic\include\pic18f24k40.h"
   810                           T1CLK equ 0FD2h ;# 
   811  0000                     # 22880 "C:\Program Files (x86)\Microchip\xc8\v2.00\pic\include\pic18f24k40.h"
   812                           TMR1CLK equ 0FD2h ;# 
   813  0000                     # 23017 "C:\Program Files (x86)\Microchip\xc8\v2.00\pic\include\pic18f24k40.h"
   814                           TMR0L equ 0FD3h ;# 
   815  0000                     # 23022 "C:\Program Files (x86)\Microchip\xc8\v2.00\pic\include\pic18f24k40.h"
   816                           TMR0 equ 0FD3h ;# 
   817  0000                     # 23155 "C:\Program Files (x86)\Microchip\xc8\v2.00\pic\include\pic18f24k40.h"
   818                           TMR0H equ 0FD4h ;# 
   819  0000                     # 23160 "C:\Program Files (x86)\Microchip\xc8\v2.00\pic\include\pic18f24k40.h"
   820                           PR0 equ 0FD4h ;# 
   821  0000                     # 23409 "C:\Program Files (x86)\Microchip\xc8\v2.00\pic\include\pic18f24k40.h"
   822                           T0CON0 equ 0FD5h ;# 
   823  0000                     # 23474 "C:\Program Files (x86)\Microchip\xc8\v2.00\pic\include\pic18f24k40.h"
   824                           T0CON1 equ 0FD6h ;# 
   825  0000                     # 23585 "C:\Program Files (x86)\Microchip\xc8\v2.00\pic\include\pic18f24k40.h"
   826                           PCON0 equ 0FD7h ;# 
   827  0000                     # 23738 "C:\Program Files (x86)\Microchip\xc8\v2.00\pic\include\pic18f24k40.h"
   828                           STATUS equ 0FD8h ;# 
   829  0000                     # 23854 "C:\Program Files (x86)\Microchip\xc8\v2.00\pic\include\pic18f24k40.h"
   830                           FSR2 equ 0FD9h ;# 
   831  0000                     # 23861 "C:\Program Files (x86)\Microchip\xc8\v2.00\pic\include\pic18f24k40.h"
   832                           FSR2L equ 0FD9h ;# 
   833  0000                     # 23881 "C:\Program Files (x86)\Microchip\xc8\v2.00\pic\include\pic18f24k40.h"
   834                           FSR2H equ 0FDAh ;# 
   835  0000                     # 23888 "C:\Program Files (x86)\Microchip\xc8\v2.00\pic\include\pic18f24k40.h"
   836                           PLUSW2 equ 0FDBh ;# 
   837  0000                     # 23908 "C:\Program Files (x86)\Microchip\xc8\v2.00\pic\include\pic18f24k40.h"
   838                           PREINC2 equ 0FDCh ;# 
   839  0000                     # 23928 "C:\Program Files (x86)\Microchip\xc8\v2.00\pic\include\pic18f24k40.h"
   840                           POSTDEC2 equ 0FDDh ;# 
   841  0000                     # 23948 "C:\Program Files (x86)\Microchip\xc8\v2.00\pic\include\pic18f24k40.h"
   842                           POSTINC2 equ 0FDEh ;# 
   843  0000                     # 23968 "C:\Program Files (x86)\Microchip\xc8\v2.00\pic\include\pic18f24k40.h"
   844                           INDF2 equ 0FDFh ;# 
   845  0000                     # 23988 "C:\Program Files (x86)\Microchip\xc8\v2.00\pic\include\pic18f24k40.h"
   846                           BSR equ 0FE0h ;# 
   847  0000                     # 23995 "C:\Program Files (x86)\Microchip\xc8\v2.00\pic\include\pic18f24k40.h"
   848                           FSR1 equ 0FE1h ;# 
   849  0000                     # 24002 "C:\Program Files (x86)\Microchip\xc8\v2.00\pic\include\pic18f24k40.h"
   850                           FSR1L equ 0FE1h ;# 
   851  0000                     # 24022 "C:\Program Files (x86)\Microchip\xc8\v2.00\pic\include\pic18f24k40.h"
   852                           FSR1H equ 0FE2h ;# 
   853  0000                     # 24029 "C:\Program Files (x86)\Microchip\xc8\v2.00\pic\include\pic18f24k40.h"
   854                           PLUSW1 equ 0FE3h ;# 
   855  0000                     # 24049 "C:\Program Files (x86)\Microchip\xc8\v2.00\pic\include\pic18f24k40.h"
   856                           PREINC1 equ 0FE4h ;# 
   857  0000                     # 24069 "C:\Program Files (x86)\Microchip\xc8\v2.00\pic\include\pic18f24k40.h"
   858                           POSTDEC1 equ 0FE5h ;# 
   859  0000                     # 24089 "C:\Program Files (x86)\Microchip\xc8\v2.00\pic\include\pic18f24k40.h"
   860                           POSTINC1 equ 0FE6h ;# 
   861  0000                     # 24109 "C:\Program Files (x86)\Microchip\xc8\v2.00\pic\include\pic18f24k40.h"
   862                           INDF1 equ 0FE7h ;# 
   863  0000                     # 24129 "C:\Program Files (x86)\Microchip\xc8\v2.00\pic\include\pic18f24k40.h"
   864                           WREG equ 0FE8h ;# 
   865  0000                     # 24167 "C:\Program Files (x86)\Microchip\xc8\v2.00\pic\include\pic18f24k40.h"
   866                           FSR0 equ 0FE9h ;# 
   867  0000                     # 24174 "C:\Program Files (x86)\Microchip\xc8\v2.00\pic\include\pic18f24k40.h"
   868                           FSR0L equ 0FE9h ;# 
   869  0000                     # 24194 "C:\Program Files (x86)\Microchip\xc8\v2.00\pic\include\pic18f24k40.h"
   870                           FSR0H equ 0FEAh ;# 
   871  0000                     # 24201 "C:\Program Files (x86)\Microchip\xc8\v2.00\pic\include\pic18f24k40.h"
   872                           PLUSW0 equ 0FEBh ;# 
   873  0000                     # 24221 "C:\Program Files (x86)\Microchip\xc8\v2.00\pic\include\pic18f24k40.h"
   874                           PREINC0 equ 0FECh ;# 
   875  0000                     # 24241 "C:\Program Files (x86)\Microchip\xc8\v2.00\pic\include\pic18f24k40.h"
   876                           POSTDEC0 equ 0FEDh ;# 
   877  0000                     # 24261 "C:\Program Files (x86)\Microchip\xc8\v2.00\pic\include\pic18f24k40.h"
   878                           POSTINC0 equ 0FEEh ;# 
   879  0000                     # 24281 "C:\Program Files (x86)\Microchip\xc8\v2.00\pic\include\pic18f24k40.h"
   880                           INDF0 equ 0FEFh ;# 
   881  0000                     # 24301 "C:\Program Files (x86)\Microchip\xc8\v2.00\pic\include\pic18f24k40.h"
   882                           INTCON equ 0FF2h ;# 
   883  0000                     # 24382 "C:\Program Files (x86)\Microchip\xc8\v2.00\pic\include\pic18f24k40.h"
   884                           PROD equ 0FF3h ;# 
   885  0000                     # 24389 "C:\Program Files (x86)\Microchip\xc8\v2.00\pic\include\pic18f24k40.h"
   886                           PRODL equ 0FF3h ;# 
   887  0000                     # 24409 "C:\Program Files (x86)\Microchip\xc8\v2.00\pic\include\pic18f24k40.h"
   888                           PRODH equ 0FF4h ;# 
   889  0000                     # 24429 "C:\Program Files (x86)\Microchip\xc8\v2.00\pic\include\pic18f24k40.h"
   890                           TABLAT equ 0FF5h ;# 
   891  0000                     # 24451 "C:\Program Files (x86)\Microchip\xc8\v2.00\pic\include\pic18f24k40.h"
   892                           TBLPTR equ 0FF6h ;# 
   893  0000                     # 24458 "C:\Program Files (x86)\Microchip\xc8\v2.00\pic\include\pic18f24k40.h"
   894                           TBLPTRL equ 0FF6h ;# 
   895  0000                     # 24478 "C:\Program Files (x86)\Microchip\xc8\v2.00\pic\include\pic18f24k40.h"
   896                           TBLPTRH equ 0FF7h ;# 
   897  0000                     # 24498 "C:\Program Files (x86)\Microchip\xc8\v2.00\pic\include\pic18f24k40.h"
   898                           TBLPTRU equ 0FF8h ;# 
   899  0000                     # 24529 "C:\Program Files (x86)\Microchip\xc8\v2.00\pic\include\pic18f24k40.h"
   900                           PCLAT equ 0FF9h ;# 
   901  0000                     # 24536 "C:\Program Files (x86)\Microchip\xc8\v2.00\pic\include\pic18f24k40.h"
   902                           PC equ 0FF9h ;# 
   903  0000                     # 24543 "C:\Program Files (x86)\Microchip\xc8\v2.00\pic\include\pic18f24k40.h"
   904                           PCL equ 0FF9h ;# 
   905  0000                     # 24563 "C:\Program Files (x86)\Microchip\xc8\v2.00\pic\include\pic18f24k40.h"
   906                           PCLATH equ 0FFAh ;# 
   907  0000                     # 24583 "C:\Program Files (x86)\Microchip\xc8\v2.00\pic\include\pic18f24k40.h"
   908                           PCLATU equ 0FFBh ;# 
   909  0000                     # 24603 "C:\Program Files (x86)\Microchip\xc8\v2.00\pic\include\pic18f24k40.h"
   910                           STKPTR equ 0FFCh ;# 
   911  0000                     # 24701 "C:\Program Files (x86)\Microchip\xc8\v2.00\pic\include\pic18f24k40.h"
   912                           TOS equ 0FFDh ;# 
   913  0000                     # 24708 "C:\Program Files (x86)\Microchip\xc8\v2.00\pic\include\pic18f24k40.h"
   914                           TOSL equ 0FFDh ;# 
   915  0000                     # 24728 "C:\Program Files (x86)\Microchip\xc8\v2.00\pic\include\pic18f24k40.h"
   916                           TOSH equ 0FFEh ;# 
   917  0000                     # 24748 "C:\Program Files (x86)\Microchip\xc8\v2.00\pic\include\pic18f24k40.h"
   918                           TOSU equ 0FFFh ;# 
   919  0000                     	FNCALL	_main,_clearFramingError
   920                           	FNCALL	_main,_clearOverrunError
   921                           	FNCALL	_main,_initServos
   922                           	FNCALL	_main,_initTMR2
   923                           	FNCALL	_main,_initUSART
   924                           	FNROOT	_main
   925                           	FNCALL	intlevel2,_isr
   926                           	global	intlevel2
   927                           	FNROOT	intlevel2
   928                           	global	_eyelidsSawtoothThreshold
   929                           	global	_lowerJawSawtoothThreshold
   930                           	global	_rightLipCornerSawtoothThreshold
   931                           	global	_leftLipCornerSawtoothThreshold
   932                           	global	_eyebrowSawtoothThreshold
   933                           psect	idataCOMRAM,class=CODE,space=0,delta=1,noexec
   934                           global __pidataCOMRAM
   935                           __pidataCOMRAM:
   936  0002F2                     	file	"ServoController.c"
   937                           	line	54
   938                           
   939                           ;initializer for _eyelidsSawtoothThreshold
   940                           	db	low(0B9h)
   941  0002F2  B9                 	line	53
   942                           
   943                           ;initializer for _lowerJawSawtoothThreshold
   944                           	db	low(0B7h)
   945  0002F3  B7                 	line	52
   946                           
   947                           ;initializer for _rightLipCornerSawtoothThreshold
   948                           	db	low(0BBh)
   949  0002F4  BB                 	line	51
   950                           
   951                           ;initializer for _leftLipCornerSawtoothThreshold
   952                           	db	low(0BAh)
   953  0002F5  BA                 	line	50
   954                           
   955                           ;initializer for _eyebrowSawtoothThreshold
   956                           	db	low(0BAh)
   957  0002F6  BA                 	global	_sawtoothCounter
   958                           	global	_receiveCounter
   959                           	global	_velocity
   960                           	global	_partMidiNote
   961                           	global	clearFramingError@temp
   962                           	global	clearOverrunError@temp
   963                           	global	_RCIF
   964                           _RCIF	set	0x766D
   965  0000                     	global	_TMR2IE
   966                           _TMR2IE	set	0x7631
   967  0000                     	global	_TMR2IF
   968                           _TMR2IF	set	0x7671
   969  0000                     	global	_RCREG
   970                           _RCREG	set	0xF99
   971  0000                     	global	_SPBRG
   972                           _SPBRG	set	0xF9B
   973  0000                     	global	_T2CON
   974                           _T2CON	set	0xFBD
   975  0000                     	global	_PR2
   976                           _PR2	set	0xFBC
   977  0000                     	global	_GIE
   978                           _GIE	set	0x7F97
   979  0000                     	global	_PEIE
   980                           _PEIE	set	0x7F96
   981  0000                     	global	_RB5
   982                           _RB5	set	0x7C75
   983  0000                     	global	_RB0
   984                           _RB0	set	0x7C70
   985  0000                     	global	_RA3
   986                           _RA3	set	0x7C6B
   987  0000                     	global	_RA2
   988                           _RA2	set	0x7C6A
   989  0000                     	global	_RA1
   990                           _RA1	set	0x7C69
   991  0000                     	global	_RA0
   992                           _RA0	set	0x7C68
   993  0000                     	global	_TRISB3
   994                           _TRISB3	set	0x7C4B
   995  0000                     	global	_TRISB0
   996                           _TRISB0	set	0x7C48
   997  0000                     	global	_TRISA3
   998                           _TRISA3	set	0x7C43
   999  0000                     	global	_TRISA2
  1000                           _TRISA2	set	0x7C42
  1001  0000                     	global	_TRISA1
  1002                           _TRISA1	set	0x7C41
  1003  0000                     	global	_TRISA0
  1004                           _TRISA0	set	0x7C40
  1005  0000                     	global	_FERR
  1006                           _FERR	set	0x7CEA
  1007  0000                     	global	_OERR
  1008                           _OERR	set	0x7CE9
  1009  0000                     	global	_SPEN
  1010                           _SPEN	set	0x7CEF
  1011  0000                     	global	_CREN
  1012                           _CREN	set	0x7CEC
  1013  0000                     	global	_BRGH
  1014                           _BRGH	set	0x7CF2
  1015  0000                     	global	_TRISB1
  1016                           _TRISB1	set	0x7C49
  1017  0000                     	global	_TMR2ON
  1018                           _TMR2ON	set	0x7DEF
  1019  0000                     ; #config settings
  1020                           global __CFG_FEXTOSC$OFF
  1021                           __CFG_FEXTOSC$OFF equ 0x0
  1022  0000                     global __CFG_RSTOSC$HFINTOSC_64MHZ
  1023                           __CFG_RSTOSC$HFINTOSC_64MHZ equ 0x0
  1024  0000                     global __CFG_CLKOUTEN$OFF
  1025                           __CFG_CLKOUTEN$OFF equ 0x0
  1026  0000                     global __CFG_CSWEN$OFF
  1027                           __CFG_CSWEN$OFF equ 0x0
  1028  0000                     global __CFG_FCMEN$ON
  1029                           __CFG_FCMEN$ON equ 0x0
  1030  0000                     global __CFG_MCLRE$INTMCLR
  1031                           __CFG_MCLRE$INTMCLR equ 0x0
  1032  0000                     global __CFG_PWRTE$ON
  1033                           __CFG_PWRTE$ON equ 0x0
  1034  0000                     global __CFG_LPBOREN$OFF
  1035                           __CFG_LPBOREN$OFF equ 0x0
  1036  0000                     global __CFG_BOREN$SBORDIS
  1037                           __CFG_BOREN$SBORDIS equ 0x0
  1038  0000                     global __CFG_BORV$VBOR_285
  1039                           __CFG_BORV$VBOR_285 equ 0x0
  1040  0000                     global __CFG_ZCD$OFF
  1041                           __CFG_ZCD$OFF equ 0x0
  1042  0000                     global __CFG_PPS1WAY$ON
  1043                           __CFG_PPS1WAY$ON equ 0x0
  1044  0000                     global __CFG_STVREN$ON
  1045                           __CFG_STVREN$ON equ 0x0
  1046  0000                     global __CFG_DEBUG$OFF
  1047                           __CFG_DEBUG$OFF equ 0x0
  1048  0000                     global __CFG_XINST$OFF
  1049                           __CFG_XINST$OFF equ 0x0
  1050  0000                     global __CFG_WDTCPS$WDTCPS_31
  1051                           __CFG_WDTCPS$WDTCPS_31 equ 0x0
  1052  0000                     global __CFG_WDTE$OFF
  1053                           __CFG_WDTE$OFF equ 0x0
  1054  0000                     global __CFG_WDTCWS$WDTCWS_7
  1055                           __CFG_WDTCWS$WDTCWS_7 equ 0x0
  1056  0000                     global __CFG_WDTCCS$SC
  1057                           __CFG_WDTCCS$SC equ 0x0
  1058  0000                     global __CFG_WRT0$ON
  1059                           __CFG_WRT0$ON equ 0x0
  1060  0000                     global __CFG_WRT1$ON
  1061                           __CFG_WRT1$ON equ 0x0
  1062  0000                     global __CFG_WRTC$ON
  1063                           __CFG_WRTC$ON equ 0x0
  1064  0000                     global __CFG_WRTB$ON
  1065                           __CFG_WRTB$ON equ 0x0
  1066  0000                     global __CFG_WRTD$ON
  1067                           __CFG_WRTD$ON equ 0x0
  1068  0000                     global __CFG_SCANE$ON
  1069                           __CFG_SCANE$ON equ 0x0
  1070  0000                     global __CFG_LVP$OFF
  1071                           __CFG_LVP$OFF equ 0x0
  1072  0000                     global __CFG_CP$ON
  1073                           __CFG_CP$ON equ 0x0
  1074  0000                     global __CFG_CPD$ON
  1075                           __CFG_CPD$ON equ 0x0
  1076  0000                     global __CFG_EBTR0$ON
  1077                           __CFG_EBTR0$ON equ 0x0
  1078  0000                     global __CFG_EBTR1$ON
  1079                           __CFG_EBTR1$ON equ 0x0
  1080  0000                     global __CFG_EBTRB$ON
  1081                           __CFG_EBTRB$ON equ 0x0
  1082  0000                     	file	"C:\Users\sleep\AppData\Local\Temp\si1o."
  1083                           	line	#
  1084                           psect	cinit,class=CODE,delta=1,reloc=2
  1085                           global __pcinit
  1086                           __pcinit:
  1087  00024A                     global start_initialization
  1088                           start_initialization:
  1089  00024A                     
  1090                           global __initialization
  1091                           __initialization:
  1092  00024A                     psect	bssCOMRAM,class=COMRAM,space=1,noexec
  1093                           global __pbssCOMRAM
  1094                           __pbssCOMRAM:
  1095  000001                     	global	_sawtoothCounter
  1096                           _sawtoothCounter:
  1097  000001                            ds      1
  1098  000001                     	global	_receiveCounter
  1099                           _receiveCounter:
  1100  000002                            ds      1
  1101  000002                     	global	_velocity
  1102                           _velocity:
  1103  000003                            ds      1
  1104  000003                     	global	_partMidiNote
  1105                           _partMidiNote:
  1106  000004                            ds      1
  1107  000004                     clearFramingError@temp:
  1108  000005                            ds      1
  1109  000005                     clearOverrunError@temp:
  1110  000006                            ds      1
  1111  000006                     psect	dataCOMRAM,class=COMRAM,space=1,noexec
  1112                           global __pdataCOMRAM
  1113                           __pdataCOMRAM:
  1114  000007                     	file	"ServoController.c"
  1115                           	line	54
  1116                           	global	_eyelidsSawtoothThreshold
  1117                           _eyelidsSawtoothThreshold:
  1118  000007                            ds      1
  1119  000007                     psect	dataCOMRAM
  1120                           	file	"ServoController.c"
  1121                           	line	53
  1122                           	global	_lowerJawSawtoothThreshold
  1123                           _lowerJawSawtoothThreshold:
  1124  000008                            ds      1
  1125  000008                     psect	dataCOMRAM
  1126                           	file	"ServoController.c"
  1127                           	line	52
  1128                           	global	_rightLipCornerSawtoothThreshold
  1129                           _rightLipCornerSawtoothThreshold:
  1130  000009                            ds      1
  1131  000009                     psect	dataCOMRAM
  1132                           	file	"ServoController.c"
  1133                           	line	51
  1134                           	global	_leftLipCornerSawtoothThreshold
  1135                           _leftLipCornerSawtoothThreshold:
  1136  00000A                            ds      1
  1137  00000A                     psect	dataCOMRAM
  1138                           	file	"ServoController.c"
  1139                           	line	50
  1140                           	global	_eyebrowSawtoothThreshold
  1141                           _eyebrowSawtoothThreshold:
  1142  00000B                            ds      1
  1143  00000B                     	file	"C:\Users\sleep\AppData\Local\Temp\si1o."
  1144                           	line	#
  1145                           psect	cinit
  1146                           ; Initialize objects allocated to COMRAM (5 bytes)
  1147                           	global __pidataCOMRAM
  1148                           	; load TBLPTR registers with __pidataCOMRAM
  1149                           	movlw	low (__pidataCOMRAM)
  1150  00024A  0EF2               	movwf	tblptrl
  1151  00024C  6EF6               	movlw	high(__pidataCOMRAM)
  1152  00024E  0E02               	movwf	tblptrh
  1153  000250  6EF7               	movlw	low highword(__pidataCOMRAM)
  1154  000252  0E00               	movwf	tblptru
  1155  000254  6EF8               	lfsr	0,__pdataCOMRAM
  1156  000256  EE00  F007         	lfsr	1,5
  1157  00025A  EE10 F005          	copy_data0:
  1158  00025E                     	tblrd	*+
  1159  00025E  0009               	movff	tablat, postinc0
  1160  000260  CFF5 FFEE          	movf	postdec1,w
  1161  000264  50E5               	movf	fsr1l,w
  1162  000266  50E1               	bnz	copy_data0
  1163  000268  E1FA               	line	#
  1164                           ; Clear objects allocated to COMRAM (6 bytes)
  1165                           	global __pbssCOMRAM
  1166                           clrf	(__pbssCOMRAM+5)&0xffh,c
  1167  00026A  6A06               clrf	(__pbssCOMRAM+4)&0xffh,c
  1168  00026C  6A05               clrf	(__pbssCOMRAM+3)&0xffh,c
  1169  00026E  6A04               clrf	(__pbssCOMRAM+2)&0xffh,c
  1170  000270  6A03               clrf	(__pbssCOMRAM+1)&0xffh,c
  1171  000272  6A02               clrf	(__pbssCOMRAM+0)&0xffh,c
  1172  000274  6A01               psect cinit,class=CODE,delta=1
  1173                           global end_of_initialization,__end_of__initialization
  1174                           
  1175                           ;End of C runtime variable initialization code
  1176                           
  1177                           end_of_initialization:
  1178  000276                     __end_of__initialization:
  1179  000276                     	bcf int$flags,0,c ;clear compiler interrupt flag (level 1)
  1180  000276  900E               	bcf int$flags,1,c ;clear compiler interrupt flag (level 2)
  1181  000278  920E               	GLOBAL	__Lmediumconst
  1182                           	movlw	low highword(__Lmediumconst)
  1183  00027A  0E00               	movwf	tblptru
  1184  00027C  6EF8               movlb 0
  1185  00027E  0100               goto _main	;jump to C main() function
  1186  000280  EFFF  F000         psect	cstackCOMRAM,class=COMRAM,space=1,noexec
  1187                           global __pcstackCOMRAM
  1188                           __pcstackCOMRAM:
  1189  00000C                     ?_initTMR2:	; 1 bytes @ 0x0
  1190  00000C                     ?_initUSART:	; 1 bytes @ 0x0
  1191  00000C                     ?_clearOverrunError:	; 1 bytes @ 0x0
  1192  00000C                     ?_clearFramingError:	; 1 bytes @ 0x0
  1193  00000C                     ?_initServos:	; 1 bytes @ 0x0
  1194  00000C                     ?_isr:	; 1 bytes @ 0x0
  1195  00000C                     ??_isr:	; 1 bytes @ 0x0
  1196  00000C                     ?_main:	; 1 bytes @ 0x0
  1197  00000C                     	ds   2
  1198  00000C                     ??_initTMR2:	; 1 bytes @ 0x2
  1199  00000E                     ??_initUSART:	; 1 bytes @ 0x2
  1200  00000E                     ??_clearOverrunError:	; 1 bytes @ 0x2
  1201  00000E                     ??_clearFramingError:	; 1 bytes @ 0x2
  1202  00000E                     ??_initServos:	; 1 bytes @ 0x2
  1203  00000E                     ??_main:	; 1 bytes @ 0x2
  1204  00000E                     ;!
  1205                           ;!Data Sizes:
  1206                           ;!    Strings     0
  1207                           ;!    Constant    0
  1208                           ;!    Data        5
  1209                           ;!    BSS         6
  1210                           ;!    Persistent  0
  1211                           ;!    Stack       0
  1212                           ;!
  1213                           ;!Auto Spaces:
  1214                           ;!    Space          Size  Autos    Used
  1215                           ;!    COMRAM           94      2      13
  1216                           ;!    BANK0           160      0       0
  1217                           ;!    BANK1           256      0       0
  1218                           ;!    BANK3           256      0       0
  1219                           ;!    BANK2           256      0       0
  1220                           
  1221                           ;!
  1222                           ;!Pointer List with Targets:
  1223                           ;!
  1224                           ;!    None.
  1225                           
  1226                           
  1227                           ;!
  1228                           ;!Critical Paths under _main in COMRAM
  1229                           ;!
  1230                           ;!    None.
  1231                           ;!
  1232                           ;!Critical Paths under _isr in COMRAM
  1233                           ;!
  1234                           ;!    None.
  1235                           ;!
  1236                           ;!Critical Paths under _main in BANK0
  1237                           ;!
  1238                           ;!    None.
  1239                           ;!
  1240                           ;!Critical Paths under _isr in BANK0
  1241                           ;!
  1242                           ;!    None.
  1243                           ;!
  1244                           ;!Critical Paths under _main in BANK1
  1245                           ;!
  1246                           ;!    None.
  1247                           ;!
  1248                           ;!Critical Paths under _isr in BANK1
  1249                           ;!
  1250                           ;!    None.
  1251                           ;!
  1252                           ;!Critical Paths under _main in BANK3
  1253                           ;!
  1254                           ;!    None.
  1255                           ;!
  1256                           ;!Critical Paths under _isr in BANK3
  1257                           ;!
  1258                           ;!    None.
  1259                           ;!
  1260                           ;!Critical Paths under _main in BANK2
  1261                           ;!
  1262                           ;!    None.
  1263                           ;!
  1264                           ;!Critical Paths under _isr in BANK2
  1265                           ;!
  1266                           ;!    None.
  1267                           
  1268 ;;
  1269 ;;Main: autosize = 0, tempsize = 0, incstack = 0, save=0
  1270 ;;
  1271                           
  1272                           ;!
  1273                           ;!Call Graph Tables:
  1274                           ;!
  1275                           ;! ---------------------------------------------------------------------------------
  1276                           ;! (Depth) Function   	        Calls       Base Space   Used Autos Params    Refs
  1277                           ;! ---------------------------------------------------------------------------------
  1278                           ;! (0) _main                                                 0     0      0       0
  1279                           ;!                  _clearFramingError
  1280                           ;!                  _clearOverrunError
  1281                           ;!                         _initServos
  1282                           ;!                           _initTMR2
  1283                           ;!                          _initUSART
  1284                           ;! ---------------------------------------------------------------------------------
  1285                           ;! (1) _initUSART                                            0     0      0       0
  1286                           ;! ---------------------------------------------------------------------------------
  1287                           ;! (1) _initTMR2                                             0     0      0       0
  1288                           ;! ---------------------------------------------------------------------------------
  1289                           ;! (1) _initServos                                           0     0      0       0
  1290                           ;! ---------------------------------------------------------------------------------
  1291                           ;! (1) _clearOverrunError                                    0     0      0       0
  1292                           ;! ---------------------------------------------------------------------------------
  1293                           ;! (1) _clearFramingError                                    0     0      0       0
  1294                           ;! ---------------------------------------------------------------------------------
  1295                           ;! Estimated maximum stack depth 1
  1296                           ;! ---------------------------------------------------------------------------------
  1297                           ;! (Depth) Function   	        Calls       Base Space   Used Autos Params    Refs
  1298                           ;! ---------------------------------------------------------------------------------
  1299                           ;! (2) _isr                                                  2     2      0       0
  1300                           ;!                                              0 COMRAM     2     2      0
  1301                           ;! ---------------------------------------------------------------------------------
  1302                           ;! Estimated maximum stack depth 2
  1303                           ;! ---------------------------------------------------------------------------------
  1304                           ;!
  1305                           ;! Call Graph Graphs:
  1306                           ;!
  1307                           ;! _main (ROOT)
  1308                           ;!   _clearFramingError
  1309                           ;!   _clearOverrunError
  1310                           ;!   _initServos
  1311                           ;!   _initTMR2
  1312                           ;!   _initUSART
  1313                           ;!
  1314                           ;! _isr (ROOT)
  1315                           ;!
  1316                           
  1317                           ;! Address spaces:
  1318                           
  1319                           ;!Name               Size   Autos  Total    Cost      Usage
  1320                           ;!BIGRAM             3FF      0       0      12        0.0%
  1321                           ;!EEDATA             100      0       0       0        0.0%
  1322                           ;!BITBANK3           100      0       0      11        0.0%
  1323                           ;!BANK3              100      0       0       7        0.0%
  1324                           ;!BITBANK2           100      0       0       9        0.0%
  1325                           ;!BANK2              100      0       0      10        0.0%
  1326                           ;!BITBANK1           100      0       0       5        0.0%
  1327                           ;!BANK1              100      0       0       6        0.0%
  1328                           ;!BITBANK0            A0      0       0       3        0.0%
  1329                           ;!BANK0               A0      0       0       4        0.0%
  1330                           ;!BITCOMRAM           5E      0       0       0        0.0%
  1331                           ;!COMRAM              5E      2       D       1       13.8%
  1332                           ;!BITSFR_2             0      0       0     200        0.0%
  1333                           ;!SFR_2                0      0       0     200        0.0%
  1334                           ;!BITSFR_1             0      0       0     200        0.0%
  1335                           ;!SFR_1                0      0       0     200        0.0%
  1336                           ;!BITSFR               0      0       0     200        0.0%
  1337                           ;!SFR                  0      0       0     200        0.0%
  1338                           ;!STACK                0      0       0       2        0.0%
  1339                           ;!NULL                 0      0       0       0        0.0%
  1340                           ;!ABS                  0      0       D       8        0.0%
  1341                           ;!DATA                 0      0       D      13        0.0%
  1342                           ;!CODE                 0      0       0       0        0.0%
  1343                           
  1344                           	global	_main
  1345                           
  1346 ;; *************** function _main *****************
  1347 ;; Defined at:
  1348 ;;		line 111 in file "ServoController.c"
  1349 ;; Parameters:    Size  Location     Type
  1350 ;;		None
  1351 ;; Auto vars:     Size  Location     Type
  1352 ;;		None
  1353 ;; Return value:  Size  Location     Type
  1354 ;;                  1    wreg      void 
  1355 ;; Registers used:
  1356 ;;		wreg, status,2, cstack
  1357 ;; Tracked objects:
  1358 ;;		On entry : 0/0
  1359 ;;		On exit  : 0/0
  1360 ;;		Unchanged: 0/0
  1361 ;; Data sizes:     COMRAM   BANK0   BANK1   BANK3   BANK2
  1362 ;;      Params:         0       0       0       0       0
  1363 ;;      Locals:         0       0       0       0       0
  1364 ;;      Temps:          0       0       0       0       0
  1365 ;;      Totals:         0       0       0       0       0
  1366 ;;Total ram usage:        0 bytes
  1367 ;; Hardware stack levels required when called:    2
  1368 ;; This function calls:
  1369 ;;		_clearFramingError
  1370 ;;		_clearOverrunError
  1371 ;;		_initServos
  1372 ;;		_initTMR2
  1373 ;;		_initUSART
  1374 ;; This function is called by:
  1375 ;;		Startup code after reset
  1376 ;; This function uses a non-reentrant model
  1377 ;;
  1378                           psect	text0,class=CODE,space=0,reloc=2,group=0
  1379                           	file	"ServoController.c"
  1380                           	line	111
  1381                           global __ptext0
  1382                           __ptext0:
  1383  0001FE                     psect	text0
  1384                           	file	"ServoController.c"
  1385                           	line	111
  1386                           	global	__size_of_main
  1387                           	__size_of_main	equ	__end_of_main-_main
  1388  0000                     	
  1389                           _main:
  1390  0001FE                     ;incstack = 0
  1391                           	opt	stack 29
  1392                           	line	115
  1393                           	
  1394                           l911:
  1395  0001FE                     ;ServoController.c: 115:     initServos();
  1396                           	call	_initServos	;wreg free
  1397  0001FE  EC72  F001         	line	116
  1398                           	
  1399                           l913:
  1400  000202                     ;ServoController.c: 116:     initUSART();
  1401                           	call	_initUSART	;wreg free
  1402  000202  EC6B  F001         	line	117
  1403                           	
  1404                           l915:
  1405  000206                     ;ServoController.c: 117:     initTMR2();
  1406                           	call	_initTMR2	;wreg free
  1407  000206  EC62  F001         	line	119
  1408                           	
  1409                           l917:
  1410  00020A                     ;ServoController.c: 119:     PEIE = 1;
  1411                           	bsf	c:(32662/8),(32662)&7	;volatile
  1412  00020A  8CF2               	line	120
  1413                           	
  1414                           l919:
  1415  00020C                     ;ServoController.c: 120:     GIE = 1;
  1416                           	bsf	c:(32663/8),(32663)&7	;volatile
  1417  00020C  8EF2               	goto	l921
  1418  00020E  EF09  F001         	line	126
  1419                           ;ServoController.c: 126:     while(1) {
  1420                           	
  1421                           l132:
  1422  000212                     	line	127
  1423                           	
  1424                           l921:
  1425  000212                     ;ServoController.c: 127:         if (OERR)
  1426                           	btfss	c:(31977/8),(31977)&7	;volatile
  1427  000212  A29D               	goto	u151
  1428  000214  EF0E  F001         	goto	u150
  1429  000218  EF10  F001         u151:
  1430  00021C                     	goto	l925
  1431  00021C  EF14  F001         u150:
  1432  000220                     	line	128
  1433                           	
  1434                           l923:
  1435  000220                     ;ServoController.c: 128:             clearOverrunError();
  1436                           	call	_clearOverrunError	;wreg free
  1437  000220  EC42  F001         	goto	l925
  1438  000224  EF14  F001         	
  1439                           l133:
  1440  000228                     	line	129
  1441                           	
  1442                           l925:
  1443  000228                     ;ServoController.c: 129:         if(FERR)
  1444                           	btfss	c:(31978/8),(31978)&7	;volatile
  1445  000228  A49D               	goto	u161
  1446  00022A  EF19  F001         	goto	u160
  1447  00022E  EF1B  F001         u161:
  1448  000232                     	goto	l921
  1449  000232  EF09  F001         u160:
  1450  000236                     	line	130
  1451                           	
  1452                           l927:
  1453  000236                     ;ServoController.c: 130:             clearFramingError();
  1454                           	call	_clearFramingError	;wreg free
  1455  000236  EC52  F001         	goto	l921
  1456  00023A  EF09  F001         	
  1457                           l134:
  1458  00023E                     	goto	l921
  1459  00023E  EF09  F001         	line	131
  1460                           ;ServoController.c: 131:     }
  1461                           	
  1462                           l135:
  1463  000242                     	goto	l921
  1464  000242  EF09  F001         	
  1465                           l136:
  1466  000246                     	line	133
  1467                           	
  1468                           l137:
  1469  000246                     	global	start
  1470                           	goto	start
  1471  000246  EFFD  F000         	opt stack 0
  1472                           GLOBAL	__end_of_main
  1473                           	__end_of_main:
  1474  00024A                     	signat	_main,89
  1475                           	global	_initUSART
  1476                           
  1477 ;; *************** function _initUSART *****************
  1478 ;; Defined at:
  1479 ;;		line 52 in file "./usart.h"
  1480 ;; Parameters:    Size  Location     Type
  1481 ;;		None
  1482 ;; Auto vars:     Size  Location     Type
  1483 ;;		None
  1484 ;; Return value:  Size  Location     Type
  1485 ;;                  1    wreg      void 
  1486 ;; Registers used:
  1487 ;;		wreg, status,2
  1488 ;; Tracked objects:
  1489 ;;		On entry : 0/0
  1490 ;;		On exit  : 0/0
  1491 ;;		Unchanged: 0/0
  1492 ;; Data sizes:     COMRAM   BANK0   BANK1   BANK3   BANK2
  1493 ;;      Params:         0       0       0       0       0
  1494 ;;      Locals:         0       0       0       0       0
  1495 ;;      Temps:          0       0       0       0       0
  1496 ;;      Totals:         0       0       0       0       0
  1497 ;;Total ram usage:        0 bytes
  1498 ;; Hardware stack levels used:    1
  1499 ;; Hardware stack levels required when called:    1
  1500 ;; This function calls:
  1501 ;;		Nothing
  1502 ;; This function is called by:
  1503 ;;		_main
  1504 ;; This function uses a non-reentrant model
  1505 ;;
  1506                           psect	text1,class=CODE,space=0,reloc=2,inline,group=0
  1507                           	file	"./usart.h"
  1508                           	line	52
  1509                           global __ptext1
  1510                           __ptext1:
  1511  0002D6                     psect	text1
  1512                           	file	"./usart.h"
  1513                           	line	52
  1514                           	global	__size_of_initUSART
  1515                           	__size_of_initUSART	equ	__end_of_initUSART-_initUSART
  1516  0000                     	
  1517                           _initUSART:
  1518  0002D6                     ;incstack = 0
  1519                           	opt	stack 29
  1520                           	line	53
  1521                           	
  1522                           l821:
  1523  0002D6                     ;./usart.h: 53:     TRISB1 = 1;
  1524                           	bsf	c:(31817/8),(31817)&7	;volatile
  1525  0002D6  8289               	line	54
  1526                           	
  1527                           l823:
  1528  0002D8                     ;./usart.h: 54:     SPBRG = 39;
  1529                           	movlw	low(027h)
  1530  0002D8  0E27               	movwf	((c:3995)),c	;volatile
  1531  0002DA  6E9B               	line	55
  1532                           	
  1533                           l825:
  1534  0002DC                     ;./usart.h: 55:     BRGH = 1;
  1535                           	bsf	c:(31986/8),(31986)&7	;volatile
  1536  0002DC  849E               	line	56
  1537                           	
  1538                           l827:
  1539  0002DE                     ;./usart.h: 56:     CREN = 1;
  1540                           	bsf	c:(31980/8),(31980)&7	;volatile
  1541  0002DE  889D               	line	57
  1542                           	
  1543                           l829:
  1544  0002E0                     ;./usart.h: 57:     SPEN = 1;
  1545                           	bsf	c:(31983/8),(31983)&7	;volatile
  1546  0002E0  8E9D               	line	58
  1547                           	
  1548                           l62:
  1549  0002E2                     	return	;funcret
  1550  0002E2  0012               	opt stack 0
  1551                           GLOBAL	__end_of_initUSART
  1552                           	__end_of_initUSART:
  1553  0002E4                     	signat	_initUSART,89
  1554                           	global	_initTMR2
  1555                           
  1556 ;; *************** function _initTMR2 *****************
  1557 ;; Defined at:
  1558 ;;		line 44 in file "./tmr2.h"
  1559 ;; Parameters:    Size  Location     Type
  1560 ;;		None
  1561 ;; Auto vars:     Size  Location     Type
  1562 ;;		None
  1563 ;; Return value:  Size  Location     Type
  1564 ;;                  1    wreg      void 
  1565 ;; Registers used:
  1566 ;;		wreg, status,2
  1567 ;; Tracked objects:
  1568 ;;		On entry : 0/0
  1569 ;;		On exit  : 0/0
  1570 ;;		Unchanged: 0/0
  1571 ;; Data sizes:     COMRAM   BANK0   BANK1   BANK3   BANK2
  1572 ;;      Params:         0       0       0       0       0
  1573 ;;      Locals:         0       0       0       0       0
  1574 ;;      Temps:          0       0       0       0       0
  1575 ;;      Totals:         0       0       0       0       0
  1576 ;;Total ram usage:        0 bytes
  1577 ;; Hardware stack levels used:    1
  1578 ;; Hardware stack levels required when called:    1
  1579 ;; This function calls:
  1580 ;;		Nothing
  1581 ;; This function is called by:
  1582 ;;		_main
  1583 ;; This function uses a non-reentrant model
  1584 ;;
  1585                           psect	text2,class=CODE,space=0,reloc=2,inline,group=0
  1586                           	file	"./tmr2.h"
  1587                           	line	44
  1588                           global __ptext2
  1589                           __ptext2:
  1590  0002C4                     psect	text2
  1591                           	file	"./tmr2.h"
  1592                           	line	44
  1593                           	global	__size_of_initTMR2
  1594                           	__size_of_initTMR2	equ	__end_of_initTMR2-_initTMR2
  1595  0000                     	
  1596                           _initTMR2:
  1597  0002C4                     ;incstack = 0
  1598                           	opt	stack 29
  1599                           	line	45
  1600                           	
  1601                           l813:
  1602  0002C4                     ;./tmr2.h: 45:     PR2 = 124;
  1603                           	movlw	low(07Ch)
  1604  0002C4  0E7C               	movwf	((c:4028)),c	;volatile
  1605  0002C6  6EBC               	line	46
  1606                           ;./tmr2.h: 46:     T2CON = 0b00000001;
  1607                           	movlw	low(01h)
  1608  0002C8  0E01               	movwf	((c:4029)),c	;volatile
  1609  0002CA  6EBD               	line	47
  1610                           	
  1611                           l815:
  1612  0002CC                     ;./tmr2.h: 47:     TMR2IF = 0;
  1613                           	movlb	14	; () banked
  1614  0002CC  010E               	bcf	(30321/8)&0ffh,(30321)&7	;volatile
  1615  0002CE  93CE               	line	48
  1616                           	
  1617                           l817:; BSR set to: 14
  1618  0002D0                     
  1619                           ;./tmr2.h: 48:     TMR2IE = 1;
  1620                           	bsf	(30257/8)&0ffh,(30257)&7	;volatile
  1621  0002D0  83C6               	line	49
  1622                           	
  1623                           l819:; BSR set to: 14
  1624  0002D2                     
  1625                           ;./tmr2.h: 49:     TMR2ON = 1;
  1626                           	bsf	c:(32239/8),(32239)&7	;volatile
  1627  0002D2  8EBD               	line	50
  1628                           	
  1629                           l59:; BSR set to: 14
  1630  0002D4                     
  1631                           	return	;funcret
  1632  0002D4  0012               	opt stack 0
  1633                           GLOBAL	__end_of_initTMR2
  1634                           	__end_of_initTMR2:
  1635  0002D6                     	signat	_initTMR2,89
  1636                           	global	_initServos
  1637                           
  1638 ;; *************** function _initServos *****************
  1639 ;; Defined at:
  1640 ;;		line 98 in file "./ServoController.h"
  1641 ;; Parameters:    Size  Location     Type
  1642 ;;		None
  1643 ;; Auto vars:     Size  Location     Type
  1644 ;;		None
  1645 ;; Return value:  Size  Location     Type
  1646 ;;                  1    wreg      void 
  1647 ;; Registers used:
  1648 ;;		None
  1649 ;; Tracked objects:
  1650 ;;		On entry : 0/0
  1651 ;;		On exit  : 0/0
  1652 ;;		Unchanged: 0/0
  1653 ;; Data sizes:     COMRAM   BANK0   BANK1   BANK3   BANK2
  1654 ;;      Params:         0       0       0       0       0
  1655 ;;      Locals:         0       0       0       0       0
  1656 ;;      Temps:          0       0       0       0       0
  1657 ;;      Totals:         0       0       0       0       0
  1658 ;;Total ram usage:        0 bytes
  1659 ;; Hardware stack levels used:    1
  1660 ;; Hardware stack levels required when called:    1
  1661 ;; This function calls:
  1662 ;;		Nothing
  1663 ;; This function is called by:
  1664 ;;		_main
  1665 ;; This function uses a non-reentrant model
  1666 ;;
  1667                           psect	text3,class=CODE,space=0,reloc=2,inline,group=0
  1668                           	file	"./ServoController.h"
  1669                           	line	98
  1670                           global __ptext3
  1671                           __ptext3:
  1672  0002E4                     psect	text3
  1673                           	file	"./ServoController.h"
  1674                           	line	98
  1675                           	global	__size_of_initServos
  1676                           	__size_of_initServos	equ	__end_of_initServos-_initServos
  1677  0000                     	
  1678                           _initServos:; BSR set to: 14
  1679  0002E4                     
  1680                           ;incstack = 0
  1681                           	opt	stack 29
  1682                           	line	99
  1683                           	
  1684                           l831:
  1685  0002E4                     ;./ServoController.h: 99:     TRISA0 = 0;
  1686                           	bcf	c:(31808/8),(31808)&7	;volatile
  1687  0002E4  9088               	line	100
  1688                           ;./ServoController.h: 100:     TRISA1 = 0;
  1689                           	bcf	c:(31809/8),(31809)&7	;volatile
  1690  0002E6  9288               	line	101
  1691                           ;./ServoController.h: 101:     TRISA2 = 0;
  1692                           	bcf	c:(31810/8),(31810)&7	;volatile
  1693  0002E8  9488               	line	102
  1694                           ;./ServoController.h: 102:     TRISA3 = 0;
  1695                           	bcf	c:(31811/8),(31811)&7	;volatile
  1696  0002EA  9688               	line	103
  1697                           ;./ServoController.h: 103:     TRISB0 = 0;
  1698                           	bcf	c:(31816/8),(31816)&7	;volatile
  1699  0002EC  9089               	line	104
  1700                           ;./ServoController.h: 104:     TRISB3 = 0;
  1701                           	bcf	c:(31819/8),(31819)&7	;volatile
  1702  0002EE  9689               	line	105
  1703                           	
  1704                           l79:
  1705  0002F0                     	return	;funcret
  1706  0002F0  0012               	opt stack 0
  1707                           GLOBAL	__end_of_initServos
  1708                           	__end_of_initServos:
  1709  0002F2                     	signat	_initServos,89
  1710                           	global	_clearOverrunError
  1711                           
  1712 ;; *************** function _clearOverrunError *****************
  1713 ;; Defined at:
  1714 ;;		line 65 in file "./usart.h"
  1715 ;; Parameters:    Size  Location     Type
  1716 ;;		None
  1717 ;; Auto vars:     Size  Location     Type
  1718 ;;		None
  1719 ;; Return value:  Size  Location     Type
  1720 ;;                  1    wreg      void 
  1721 ;; Registers used:
  1722 ;;		None
  1723 ;; Tracked objects:
  1724 ;;		On entry : 0/0
  1725 ;;		On exit  : 0/0
  1726 ;;		Unchanged: 0/0
  1727 ;; Data sizes:     COMRAM   BANK0   BANK1   BANK3   BANK2
  1728 ;;      Params:         0       0       0       0       0
  1729 ;;      Locals:         0       0       0       0       0
  1730 ;;      Temps:          0       0       0       0       0
  1731 ;;      Totals:         0       0       0       0       0
  1732 ;;Total ram usage:        0 bytes
  1733 ;; Hardware stack levels used:    1
  1734 ;; Hardware stack levels required when called:    1
  1735 ;; This function calls:
  1736 ;;		Nothing
  1737 ;; This function is called by:
  1738 ;;		_main
  1739 ;; This function uses a non-reentrant model
  1740 ;;
  1741                           psect	text4,class=CODE,space=0,reloc=2,inline,group=0
  1742                           	file	"./usart.h"
  1743                           	line	65
  1744                           global __ptext4
  1745                           __ptext4:
  1746  000284                     psect	text4
  1747                           	file	"./usart.h"
  1748                           	line	65
  1749                           	global	__size_of_clearOverrunError
  1750                           	__size_of_clearOverrunError	equ	__end_of_clearOverrunError-_clearOverrunError
  1751  0000                     	
  1752                           _clearOverrunError:
  1753  000284                     ;incstack = 0
  1754                           	opt	stack 29
  1755                           	line	67
  1756                           ;./usart.h: 66:     static unsigned char temp = 0;;./usart.h: 67:     do {
  1757                           	
  1758                           l67:
  1759  000284                     	line	68
  1760                           ;./usart.h: 68:         temp = RCREG;
  1761                           	movff	(c:3993),(c:clearOverrunError@temp)	;volatile
  1762  000284  CF99 F006          	line	69
  1763                           ;./usart.h: 69:         temp = RCREG;
  1764                           	movff	(c:3993),(c:clearOverrunError@temp)	;volatile
  1765  000288  CF99 F006          	line	70
  1766                           ;./usart.h: 70:         CREN = 0;
  1767                           	bcf	c:(31980/8),(31980)&7	;volatile
  1768  00028C  989D               	line	71
  1769                           ;./usart.h: 71:         CREN = 1;
  1770                           	bsf	c:(31980/8),(31980)&7	;volatile
  1771  00028E  889D               	line	72
  1772                           ;./usart.h: 72:     } while(OERR);
  1773                           	btfsc	c:(31977/8),(31977)&7	;volatile
  1774  000290  B29D               	goto	u11
  1775  000292  EF4D  F001         	goto	u10
  1776  000296  EF4F  F001         u11:
  1777  00029A                     	goto	l67
  1778  00029A  EF42  F001         u10:
  1779  00029E                     	goto	l69
  1780  00029E  EF51  F001         	
  1781                           l68:
  1782  0002A2                     	line	73
  1783                           	
  1784                           l69:
  1785  0002A2                     	return	;funcret
  1786  0002A2  0012               	opt stack 0
  1787                           GLOBAL	__end_of_clearOverrunError
  1788                           	__end_of_clearOverrunError:
  1789  0002A4                     	signat	_clearOverrunError,89
  1790                           	global	_clearFramingError
  1791                           
  1792 ;; *************** function _clearFramingError *****************
  1793 ;; Defined at:
  1794 ;;		line 83 in file "./usart.h"
  1795 ;; Parameters:    Size  Location     Type
  1796 ;;		None
  1797 ;; Auto vars:     Size  Location     Type
  1798 ;;		None
  1799 ;; Return value:  Size  Location     Type
  1800 ;;                  1    wreg      void 
  1801 ;; Registers used:
  1802 ;;		None
  1803 ;; Tracked objects:
  1804 ;;		On entry : 0/0
  1805 ;;		On exit  : 0/0
  1806 ;;		Unchanged: 0/0
  1807 ;; Data sizes:     COMRAM   BANK0   BANK1   BANK3   BANK2
  1808 ;;      Params:         0       0       0       0       0
  1809 ;;      Locals:         0       0       0       0       0
  1810 ;;      Temps:          0       0       0       0       0
  1811 ;;      Totals:         0       0       0       0       0
  1812 ;;Total ram usage:        0 bytes
  1813 ;; Hardware stack levels used:    1
  1814 ;; Hardware stack levels required when called:    1
  1815 ;; This function calls:
  1816 ;;		Nothing
  1817 ;; This function is called by:
  1818 ;;		_main
  1819 ;; This function uses a non-reentrant model
  1820 ;;
  1821                           psect	text5,class=CODE,space=0,reloc=2,inline,group=0
  1822                           	line	83
  1823                           global __ptext5
  1824                           __ptext5:
  1825  0002A4                     psect	text5
  1826                           	file	"./usart.h"
  1827                           	line	83
  1828                           	global	__size_of_clearFramingError
  1829                           	__size_of_clearFramingError	equ	__end_of_clearFramingError-_clearFramingError
  1830  0000                     	
  1831                           _clearFramingError:
  1832  0002A4                     ;incstack = 0
  1833                           	opt	stack 29
  1834                           	line	85
  1835                           ;./usart.h: 84:     static unsigned char temp = 0;;./usart.h: 85:     do {
  1836                           	
  1837                           l74:
  1838  0002A4                     	line	86
  1839                           ;./usart.h: 86:         temp = RCREG;
  1840                           	movff	(c:3993),(c:clearFramingError@temp)	;volatile
  1841  0002A4  CF99 F005          	line	87
  1842                           ;./usart.h: 87:         temp = RCREG;
  1843                           	movff	(c:3993),(c:clearFramingError@temp)	;volatile
  1844  0002A8  CF99 F005          	line	88
  1845                           ;./usart.h: 88:         SPEN = 0;
  1846                           	bcf	c:(31983/8),(31983)&7	;volatile
  1847  0002AC  9E9D               	line	89
  1848                           ;./usart.h: 89:         SPEN = 1;
  1849                           	bsf	c:(31983/8),(31983)&7	;volatile
  1850  0002AE  8E9D               	line	90
  1851                           ;./usart.h: 90:     } while (FERR);
  1852                           	btfsc	c:(31978/8),(31978)&7	;volatile
  1853  0002B0  B49D               	goto	u21
  1854  0002B2  EF5D  F001         	goto	u20
  1855  0002B6  EF5F  F001         u21:
  1856  0002BA                     	goto	l74
  1857  0002BA  EF52  F001         u20:
  1858  0002BE                     	goto	l76
  1859  0002BE  EF61  F001         	
  1860                           l75:
  1861  0002C2                     	line	91
  1862                           	
  1863                           l76:
  1864  0002C2                     	return	;funcret
  1865  0002C2  0012               	opt stack 0
  1866                           GLOBAL	__end_of_clearFramingError
  1867                           	__end_of_clearFramingError:
  1868  0002C4                     	signat	_clearFramingError,89
  1869                           	global	_isr
  1870                           
  1871 ;; *************** function _isr *****************
  1872 ;; Defined at:
  1873 ;;		line 57 in file "ServoController.c"
  1874 ;; Parameters:    Size  Location     Type
  1875 ;;		None
  1876 ;; Auto vars:     Size  Location     Type
  1877 ;;		None
  1878 ;; Return value:  Size  Location     Type
  1879 ;;                  1    wreg      void 
  1880 ;; Registers used:
  1881 ;;		wreg, status,2, status,0
  1882 ;; Tracked objects:
  1883 ;;		On entry : 0/0
  1884 ;;		On exit  : 0/0
  1885 ;;		Unchanged: 0/0
  1886 ;; Data sizes:     COMRAM   BANK0   BANK1   BANK3   BANK2
  1887 ;;      Params:         0       0       0       0       0
  1888 ;;      Locals:         0       0       0       0       0
  1889 ;;      Temps:          2       0       0       0       0
  1890 ;;      Totals:         2       0       0       0       0
  1891 ;;Total ram usage:        2 bytes
  1892 ;; Hardware stack levels used:    1
  1893 ;; This function calls:
  1894 ;;		Nothing
  1895 ;; This function is called by:
  1896 ;;		Interrupt level 2
  1897 ;; This function uses a non-reentrant model
  1898 ;;
  1899                           psect	intcode,class=CODE,space=0,reloc=2
  1900                           global __pintcode
  1901                           __pintcode:
  1902  000008                     psect	intcode
  1903                           	file	"ServoController.c"
  1904                           	line	57
  1905                           	global	__size_of_isr
  1906                           	__size_of_isr	equ	__end_of_isr-_isr
  1907  0000                     	
  1908                           _isr:
  1909  000008                     ;incstack = 0
  1910                           	opt	stack 29
  1911                           	bsf int$flags,1,c ;set compiler interrupt flag (level 2)
  1912  000008  820E               	line	58
  1913                           	
  1914                           i2l833:
  1915  00000A                     ;ServoController.c: 58:     if (TMR2IF) {
  1916                           	movlb	14	; () banked
  1917  00000A  010E               	btfss	(30321/8)&0ffh,(30321)&7	;volatile
  1918  00000C  A3CE               	goto	i2u3_41
  1919  00000E  EF0B  F000         	goto	i2u3_40
  1920  000012  EF0D  F000         i2u3_41:
  1921  000016                     	goto	i2l102
  1922  000016  EF66  F000         i2u3_40:
  1923  00001A                     	line	59
  1924                           	
  1925                           i2l835:; BSR set to: 14
  1926  00001A                     
  1927                           ;ServoController.c: 59:         ++sawtoothCounter;
  1928                           	incf	((c:_sawtoothCounter)),c	;volatile
  1929  00001A  2A01               	line	60
  1930                           	
  1931                           i2l837:; BSR set to: 14
  1932  00001C                     
  1933                           ;ServoController.c: 60:         if (sawtoothCounter >= 180) {
  1934                           		movlw	0B4h-1
  1935  00001C  0EB3               	cpfsgt	((c:_sawtoothCounter)),c	;volatile
  1936  00001E  6401               	goto	i2u4_41
  1937  000020  EF14  F000         	goto	i2u4_40
  1938  000024  EF16  F000         
  1939                           i2u4_41:
  1940  000028                     	goto	i2l103
  1941  000028  EF65  F000         i2u4_40:
  1942  00002C                     	line	61
  1943                           	
  1944                           i2l839:; BSR set to: 14
  1945  00002C                     
  1946                           ;ServoController.c: 61:             if (sawtoothCounter >= 200) {
  1947                           		movlw	0C8h-1
  1948  00002C  0EC7               	cpfsgt	((c:_sawtoothCounter)),c	;volatile
  1949  00002E  6401               	goto	i2u5_41
  1950  000030  EF1C  F000         	goto	i2u5_40
  1951  000034  EF1E  F000         
  1952                           i2u5_41:
  1953  000038                     	goto	i2l845
  1954  000038  EF27  F000         i2u5_40:
  1955  00003C                     	line	62
  1956                           	
  1957                           i2l841:; BSR set to: 14
  1958  00003C                     
  1959                           ;ServoController.c: 62:                 RA0 = 0;
  1960                           	bcf	c:(31848/8),(31848)&7	;volatile
  1961  00003C  908D               	line	63
  1962                           ;ServoController.c: 63:                 RA1 = 0;
  1963                           	bcf	c:(31849/8),(31849)&7	;volatile
  1964  00003E  928D               	line	64
  1965                           ;ServoController.c: 64:                 RA2 = 0;
  1966                           	bcf	c:(31850/8),(31850)&7	;volatile
  1967  000040  948D               	line	65
  1968                           ;ServoController.c: 65:                 RA3 = 0;
  1969                           	bcf	c:(31851/8),(31851)&7	;volatile
  1970  000042  968D               	line	66
  1971                           ;ServoController.c: 66:                 RB0 = 0;
  1972                           	bcf	c:(31856/8),(31856)&7	;volatile
  1973  000044  908E               	line	68
  1974                           	
  1975                           i2l843:; BSR set to: 14
  1976  000046                     
  1977                           ;ServoController.c: 68:                 sawtoothCounter = 0;
  1978                           	movlw	low(0)
  1979  000046  0E00               	movwf	((c:_sawtoothCounter)),c	;volatile
  1980  000048  6E01               	line	69
  1981                           ;ServoController.c: 69:             } else {
  1982                           	goto	i2l103
  1983  00004A  EF65  F000         	
  1984                           i2l104:; BSR set to: 14
  1985  00004E                     
  1986                           	line	70
  1987                           	
  1988                           i2l845:; BSR set to: 14
  1989  00004E                     
  1990                           ;ServoController.c: 70:                 if (sawtoothCounter == eyebrowSawtoothThreshold)
                                  RA0 = 1;
  1991                           	movf	((c:_eyebrowSawtoothThreshold)),c,w	;volatile
  1992  00004E  500B               xorwf	((c:_sawtoothCounter)),c,w	;volatile
  1993  000050  1801               	btfss	status,2
  1994  000052  A4D8               	goto	i2u6_41
  1995  000054  EF2E  F000         	goto	i2u6_40
  1996  000058  EF30  F000         
  1997                           i2u6_41:
  1998  00005C                     	goto	i2l849
  1999  00005C  EF33  F000         i2u6_40:
  2000  000060                     	
  2001                           i2l847:; BSR set to: 14
  2002  000060                     
  2003                           	bsf	c:(31848/8),(31848)&7	;volatile
  2004  000060  808D               	goto	i2l849
  2005  000062  EF33  F000         	
  2006                           i2l106:; BSR set to: 14
  2007  000066                     
  2008                           	line	71
  2009                           	
  2010                           i2l849:; BSR set to: 14
  2011  000066                     
  2012                           ;ServoController.c: 71:                 if (sawtoothCounter == leftLipCornerSawtoothThre
                                 shold) RA1 = 1;
  2013                           	movf	((c:_leftLipCornerSawtoothThreshold)),c,w	;volatile
  2014  000066  500A               xorwf	((c:_sawtoothCounter)),c,w	;volatile
  2015  000068  1801               	btfss	status,2
  2016  00006A  A4D8               	goto	i2u7_41
  2017  00006C  EF3A  F000         	goto	i2u7_40
  2018  000070  EF3C  F000         
  2019                           i2u7_41:
  2020  000074                     	goto	i2l853
  2021  000074  EF3F  F000         i2u7_40:
  2022  000078                     	
  2023                           i2l851:; BSR set to: 14
  2024  000078                     
  2025                           	bsf	c:(31849/8),(31849)&7	;volatile
  2026  000078  828D               	goto	i2l853
  2027  00007A  EF3F  F000         	
  2028                           i2l107:; BSR set to: 14
  2029  00007E                     
  2030                           	line	72
  2031                           	
  2032                           i2l853:; BSR set to: 14
  2033  00007E                     
  2034                           ;ServoController.c: 72:                 if (sawtoothCounter == rightLipCornerSawtoothThr
                                 eshold) RA2 = 1;
  2035                           	movf	((c:_rightLipCornerSawtoothThreshold)),c,w	;volatile
  2036  00007E  5009               xorwf	((c:_sawtoothCounter)),c,w	;volatile
  2037  000080  1801               	btfss	status,2
  2038  000082  A4D8               	goto	i2u8_41
  2039  000084  EF46  F000         	goto	i2u8_40
  2040  000088  EF48  F000         
  2041                           i2u8_41:
  2042  00008C                     	goto	i2l857
  2043  00008C  EF4B  F000         i2u8_40:
  2044  000090                     	
  2045                           i2l855:; BSR set to: 14
  2046  000090                     
  2047                           	bsf	c:(31850/8),(31850)&7	;volatile
  2048  000090  848D               	goto	i2l857
  2049  000092  EF4B  F000         	
  2050                           i2l108:; BSR set to: 14
  2051  000096                     
  2052                           	line	73
  2053                           	
  2054                           i2l857:; BSR set to: 14
  2055  000096                     
  2056                           ;ServoController.c: 73:                 if (sawtoothCounter == lowerJawSawtoothThreshold
                                 ) RA3 = 1;
  2057                           	movf	((c:_lowerJawSawtoothThreshold)),c,w	;volatile
  2058  000096  5008               xorwf	((c:_sawtoothCounter)),c,w	;volatile
  2059  000098  1801               	btfss	status,2
  2060  00009A  A4D8               	goto	i2u9_41
  2061  00009C  EF52  F000         	goto	i2u9_40
  2062  0000A0  EF54  F000         
  2063                           i2u9_41:
  2064  0000A4                     	goto	i2l861
  2065  0000A4  EF57  F000         i2u9_40:
  2066  0000A8                     	
  2067                           i2l859:; BSR set to: 14
  2068  0000A8                     
  2069                           	bsf	c:(31851/8),(31851)&7	;volatile
  2070  0000A8  868D               	goto	i2l861
  2071  0000AA  EF57  F000         	
  2072                           i2l109:; BSR set to: 14
  2073  0000AE                     
  2074                           	line	74
  2075                           	
  2076                           i2l861:; BSR set to: 14
  2077  0000AE                     
  2078                           ;ServoController.c: 74:                 if (sawtoothCounter == eyelidsSawtoothThreshold)
                                  RB0 = 1;
  2079                           	movf	((c:_eyelidsSawtoothThreshold)),c,w	;volatile
  2080  0000AE  5007               xorwf	((c:_sawtoothCounter)),c,w	;volatile
  2081  0000B0  1801               	btfss	status,2
  2082  0000B2  A4D8               	goto	i2u10_41
  2083  0000B4  EF5E  F000         	goto	i2u10_40
  2084  0000B8  EF60  F000         
  2085                           i2u10_41:
  2086  0000BC                     	goto	i2l103
  2087  0000BC  EF65  F000         i2u10_40:
  2088  0000C0                     	
  2089                           i2l863:; BSR set to: 14
  2090  0000C0                     
  2091                           	bsf	c:(31856/8),(31856)&7	;volatile
  2092  0000C0  808E               	goto	i2l103
  2093  0000C2  EF65  F000         	
  2094                           i2l110:; BSR set to: 14
  2095  0000C6                     
  2096                           	goto	i2l103
  2097  0000C6  EF65  F000         	line	76
  2098                           ;ServoController.c: 76:             }
  2099                           	
  2100                           i2l105:; BSR set to: 14
  2101  0000CA                     
  2102                           	line	77
  2103                           ;ServoController.c: 77:        }
  2104                           	
  2105                           i2l103:; BSR set to: 14
  2106  0000CA                     
  2107                           	line	78
  2108                           ;ServoController.c: 78:         TMR2IF = 0;
  2109                           	bcf	(30321/8)&0ffh,(30321)&7	;volatile
  2110  0000CA  93CE               	line	79
  2111                           ;ServoController.c: 79:     }
  2112                           	
  2113                           i2l102:; BSR set to: 14
  2114  0000CC                     
  2115                           	line	80
  2116                           ;ServoController.c: 80:     if (RCIF) {
  2117                           	btfss	(30317/8)&0ffh,(30317)&7	;volatile
  2118  0000CC  ABCD               	goto	i2u11_41
  2119  0000CE  EF6B  F000         	goto	i2u11_40
  2120  0000D2  EF6D  F000         i2u11_41:
  2121  0000D6                     	goto	i2l127
  2122  0000D6  EFFB  F000         i2u11_40:
  2123  0000DA                     	line	81
  2124                           	
  2125                           i2l865:; BSR set to: 14
  2126  0000DA                     
  2127                           ;ServoController.c: 81:         ++receiveCounter;
  2128                           	incf	((c:_receiveCounter)),c	;volatile
  2129  0000DA  2A02               	line	82
  2130                           ;ServoController.c: 82:         switch(receiveCounter) {
  2131                           	goto	i2l897
  2132  0000DC  EFE0  F000         	line	83
  2133                           ;ServoController.c: 83:             case 1:
  2134                           	
  2135                           i2l113:; BSR set to: 14
  2136  0000E0                     
  2137                           	line	84
  2138                           	
  2139                           i2l867:
  2140  0000E0                     ;ServoController.c: 84:                 RCREG = 0;
  2141                           	movlw	low(0)
  2142  0000E0  0E00               	movwf	((c:3993)),c	;volatile
  2143  0000E2  6E99               	line	85
  2144                           ;ServoController.c: 85:                 break;
  2145                           	goto	i2l127
  2146  0000E4  EFFB  F000         	line	86
  2147                           ;ServoController.c: 86:             case 2:
  2148                           	
  2149                           i2l115:
  2150  0000E8                     	line	87
  2151                           ;ServoController.c: 87:                 partMidiNote = RCREG;
  2152                           	movff	(c:3993),(c:_partMidiNote)	;volatile
  2153  0000E8  CF99 F004          	line	88
  2154                           ;ServoController.c: 88:                 break;
  2155                           	goto	i2l127
  2156  0000EC  EFFB  F000         	line	89
  2157                           ;ServoController.c: 89:             case 3:
  2158                           	
  2159                           i2l116:
  2160  0000F0                     	line	90
  2161                           	
  2162                           i2l869:
  2163  0000F0                     ;ServoController.c: 90:                 receiveCounter = 0;
  2164                           	movlw	low(0)
  2165  0000F0  0E00               	movwf	((c:_receiveCounter)),c	;volatile
  2166  0000F2  6E02               	line	91
  2167                           	
  2168                           i2l871:
  2169  0000F4                     ;ServoController.c: 91:                 velocity = RCREG;
  2170                           	movff	(c:3993),(c:_velocity)	;volatile
  2171  0000F4  CF99 F003          	line	92
  2172                           	
  2173                           i2l873:
  2174  0000F8                     ;ServoController.c: 92:                 if (velocity > 10) velocity = 10;
  2175                           		movlw	0Bh-1
  2176  0000F8  0E0A               	cpfsgt	((c:_velocity)),c	;volatile
  2177  0000FA  6403               	goto	i2u12_41
  2178  0000FC  EF82  F000         	goto	i2u12_40
  2179  000100  EF84  F000         
  2180                           i2u12_41:
  2181  000104                     	goto	i2l891
  2182  000104  EFB1  F000         i2u12_40:
  2183  000108                     	
  2184                           i2l875:
  2185  000108                     	movlw	low(0Ah)
  2186  000108  0E0A               	movwf	((c:_velocity)),c	;volatile
  2187  00010A  6E03               	goto	i2l891
  2188  00010C  EFB1  F000         	
  2189                           i2l117:
  2190  000110                     	line	93
  2191                           ;ServoController.c: 93:                 switch(partMidiNote) {
  2192                           	goto	i2l891
  2193  000110  EFB1  F000         	line	94
  2194                           ;ServoController.c: 94:                     case 0x3C: eyebrowSawtoothThreshold = (180 +
                                  (velocity)); break;
  2195                           	
  2196                           i2l119:
  2197  000114                     	
  2198                           i2l877:
  2199  000114                     	movf	((c:_velocity)),c,w	;volatile
  2200  000114  5003               	addlw	low(0B4h)
  2201  000116  0FB4               	movwf	((c:_eyebrowSawtoothThreshold)),c	;volatile
  2202  000118  6E0B               	goto	i2l127
  2203  00011A  EFFB  F000         	line	95
  2204                           ;ServoController.c: 95:                     case 0x3E: leftLipCornerSawtoothThreshold = 
                                 (180 + (velocity)); break;
  2205                           	
  2206                           i2l121:
  2207  00011E                     	
  2208                           i2l879:
  2209  00011E                     	movf	((c:_velocity)),c,w	;volatile
  2210  00011E  5003               	addlw	low(0B4h)
  2211  000120  0FB4               	movwf	((c:_leftLipCornerSawtoothThreshold)),c	;volatile
  2212  000122  6E0A               	goto	i2l127
  2213  000124  EFFB  F000         	line	96
  2214                           ;ServoController.c: 96:                     case 0x40: rightLipCornerSawtoothThreshold =
                                  (180 + (velocity)); break;
  2215                           	
  2216                           i2l122:
  2217  000128                     	
  2218                           i2l881:
  2219  000128                     	movf	((c:_velocity)),c,w	;volatile
  2220  000128  5003               	addlw	low(0B4h)
  2221  00012A  0FB4               	movwf	((c:_rightLipCornerSawtoothThreshold)),c	;volatile
  2222  00012C  6E09               	goto	i2l127
  2223  00012E  EFFB  F000         	line	97
  2224                           ;ServoController.c: 97:                     case 0x43: lowerJawSawtoothThreshold = (180 
                                 + (velocity)); break;
  2225                           	
  2226                           i2l123:
  2227  000132                     	
  2228                           i2l883:
  2229  000132                     	movf	((c:_velocity)),c,w	;volatile
  2230  000132  5003               	addlw	low(0B4h)
  2231  000134  0FB4               	movwf	((c:_lowerJawSawtoothThreshold)),c	;volatile
  2232  000136  6E08               	goto	i2l127
  2233  000138  EFFB  F000         	line	98
  2234                           ;ServoController.c: 98:                     case 0x45: eyelidsSawtoothThreshold = (180 +
                                  (velocity)); break;
  2235                           	
  2236                           i2l124:
  2237  00013C                     	
  2238                           i2l885:
  2239  00013C                     	movf	((c:_velocity)),c,w	;volatile
  2240  00013C  5003               	addlw	low(0B4h)
  2241  00013E  0FB4               	movwf	((c:_eyelidsSawtoothThreshold)),c	;volatile
  2242  000140  6E07               	goto	i2l127
  2243  000142  EFFB  F000         	line	100
  2244                           ;ServoController.c: 100:                     case 0x4A: RB5 = (velocity > 0) ? 1 : 0; br
                                 eak;
  2245                           	
  2246                           i2l125:
  2247  000146                     	
  2248                           i2l887:
  2249  000146                     	movf	((c:_velocity)),c,w	;volatile
  2250  000146  5003               	btfss	status,2
  2251  000148  A4D8               	goto	i2u13_41
  2252  00014A  EFA9  F000         	goto	i2u13_40
  2253  00014E  EFAC  F000         i2u13_41:
  2254  000152                     	bsf	c:(31861/8),(31861)&7	;volatile
  2255  000152  8A8E               	goto	i2u14_45
  2256  000154  EFAD  F000         i2u13_40:
  2257  000158                     	bcf	c:(31861/8),(31861)&7	;volatile
  2258  000158  9A8E               i2u14_45:
  2259  00015A                     	goto	i2l127
  2260  00015A  EFFB  F000         	line	101
  2261                           	
  2262                           i2l889:
  2263  00015E                     ;ServoController.c: 101:                 }
  2264                           	goto	i2l127
  2265  00015E  EFFB  F000         	
  2266                           i2l118:
  2267  000162                     	
  2268                           i2l891:
  2269  000162                     	movf	((c:_partMidiNote)),c,w	;volatile
  2270  000162  5004               	movwf	(??_isr+0+0)&0ffh,c
  2271  000164  6E0C               	clrf	(??_isr+0+0+1)&0ffh,c
  2272  000166  6A0D               
  2273                           	; Switch on 2 bytes has been partitioned into a top level switch of size 1, and 1 sub-s
                                 witches
  2274                           ; Switch size 1, requested type "space"
  2275                           ; Number of cases is 1, Range of values is 0 to 0
  2276                           ; switch strategies available:
  2277                           ; Name         Instructions Cycles
  2278                           ; simple_byte            4     3 (average)
  2279                           ;	Chosen strategy is simple_byte
  2280                           
  2281                           	movf ??_isr+0+1,c,w
  2282  000168  500D               	xorlw	0^0	; case 0
  2283  00016A  0A00               	skipnz
  2284  00016C  B4D8               	goto	i2l989
  2285  00016E  EFBB  F000         	goto	i2l127
  2286  000172  EFFB  F000         	
  2287                           i2l989:
  2288  000176                     ; Switch size 1, requested type "space"
  2289                           ; Number of cases is 6, Range of values is 60 to 74
  2290                           ; switch strategies available:
  2291                           ; Name         Instructions Cycles
  2292                           ; simple_byte           19    10 (average)
  2293                           ;	Chosen strategy is simple_byte
  2294                           
  2295                           	movf ??_isr+0+0,c,w
  2296  000176  500C               	xorlw	60^0	; case 60
  2297  000178  0A3C               	skipnz
  2298  00017A  B4D8               	goto	i2l877
  2299  00017C  EF8A  F000         	xorlw	62^60	; case 62
  2300  000180  0A02               	skipnz
  2301  000182  B4D8               	goto	i2l879
  2302  000184  EF8F  F000         	xorlw	64^62	; case 64
  2303  000188  0A7E               	skipnz
  2304  00018A  B4D8               	goto	i2l881
  2305  00018C  EF94  F000         	xorlw	67^64	; case 67
  2306  000190  0A03               	skipnz
  2307  000192  B4D8               	goto	i2l883
  2308  000194  EF99  F000         	xorlw	69^67	; case 69
  2309  000198  0A06               	skipnz
  2310  00019A  B4D8               	goto	i2l885
  2311  00019C  EF9E  F000         	xorlw	74^69	; case 74
  2312  0001A0  0A0F               	skipnz
  2313  0001A2  B4D8               	goto	i2l887
  2314  0001A4  EFA3  F000         	goto	i2l127
  2315  0001A8  EFFB  F000         
  2316                           	
  2317                           i2l120:
  2318  0001AC                     	line	102
  2319                           ;ServoController.c: 102:                 break;
  2320                           	goto	i2l127
  2321  0001AC  EFFB  F000         	line	103
  2322                           ;ServoController.c: 103:             default:
  2323                           	
  2324                           i2l126:
  2325  0001B0                     	line	104
  2326                           	
  2327                           i2l893:
  2328  0001B0                     ;ServoController.c: 104:                 receiveCounter = 0;
  2329                           	movlw	low(0)
  2330  0001B0  0E00               	movwf	((c:_receiveCounter)),c	;volatile
  2331  0001B2  6E02               	line	105
  2332                           ;ServoController.c: 105:                 RCREG = 0;
  2333                           	movlw	low(0)
  2334  0001B4  0E00               	movwf	((c:3993)),c	;volatile
  2335  0001B6  6E99               	line	106
  2336                           ;ServoController.c: 106:                 break;
  2337                           	goto	i2l127
  2338  0001B8  EFFB  F000         	line	107
  2339                           	
  2340                           i2l895:
  2341  0001BC                     ;ServoController.c: 107:         }
  2342                           	goto	i2l127
  2343  0001BC  EFFB  F000         	
  2344                           i2l112:
  2345  0001C0                     	
  2346                           i2l897:
  2347  0001C0                     	movf	((c:_receiveCounter)),c,w	;volatile
  2348  0001C0  5002               	movwf	(??_isr+0+0)&0ffh,c
  2349  0001C2  6E0C               	clrf	(??_isr+0+0+1)&0ffh,c
  2350  0001C4  6A0D               
  2351                           	; Switch on 2 bytes has been partitioned into a top level switch of size 1, and 1 sub-s
                                 witches
  2352                           ; Switch size 1, requested type "space"
  2353                           ; Number of cases is 1, Range of values is 0 to 0
  2354                           ; switch strategies available:
  2355                           ; Name         Instructions Cycles
  2356                           ; simple_byte            4     3 (average)
  2357                           ;	Chosen strategy is simple_byte
  2358                           
  2359                           	movf ??_isr+0+1,c,w
  2360  0001C6  500D               	xorlw	0^0	; case 0
  2361  0001C8  0A00               	skipnz
  2362  0001CA  B4D8               	goto	i2l991
  2363  0001CC  EFEA  F000         	goto	i2l893
  2364  0001D0  EFD8  F000         	
  2365                           i2l991:
  2366  0001D4                     ; Switch size 1, requested type "space"
  2367                           ; Number of cases is 3, Range of values is 1 to 3
  2368                           ; switch strategies available:
  2369                           ; Name         Instructions Cycles
  2370                           ; simple_byte           10     6 (average)
  2371                           ;	Chosen strategy is simple_byte
  2372                           
  2373                           	movf ??_isr+0+0,c,w
  2374  0001D4  500C               	xorlw	1^0	; case 1
  2375  0001D6  0A01               	skipnz
  2376  0001D8  B4D8               	goto	i2l867
  2377  0001DA  EF70  F000         	xorlw	2^1	; case 2
  2378  0001DE  0A03               	skipnz
  2379  0001E0  B4D8               	goto	i2l115
  2380  0001E2  EF74  F000         	xorlw	3^2	; case 3
  2381  0001E6  0A01               	skipnz
  2382  0001E8  B4D8               	goto	i2l869
  2383  0001EA  EF78  F000         	goto	i2l893
  2384  0001EE  EFD8  F000         
  2385                           	
  2386                           i2l114:
  2387  0001F2                     	goto	i2l127
  2388  0001F2  EFFB  F000         	line	108
  2389                           ;ServoController.c: 108:     }
  2390                           	
  2391                           i2l111:
  2392  0001F6                     	line	109
  2393                           	
  2394                           i2l127:
  2395  0001F6                     	bcf int$flags,1,c ;clear compiler interrupt flag (level 2)
  2396  0001F6  920E               	retfie f
  2397  0001F8  0011               	opt stack 0
  2398                           GLOBAL	__end_of_isr
  2399                           	__end_of_isr:
  2400  0001FA                     	signat	_isr,89
  2401                           	GLOBAL	__activetblptr
  2402                           __activetblptr	EQU	2
  2403  0000                     	psect	intsave_regs,class=BIGRAM,space=1,noexec
  2404                           	PSECT	rparam,class=COMRAM,space=1,noexec
  2405                           	GLOBAL	__Lrparam
  2406                           	FNCONF	rparam,??,?
  2407                           	GLOBAL	___rparam_used
  2408                           	___rparam_used EQU 1
  2409  0000                     	GLOBAL	___param_bank
  2410                           	___param_bank EQU 0
  2411  0000                     GLOBAL	__Lparam, __Hparam
  2412                           GLOBAL	__Lrparam, __Hrparam
  2413                           __Lparam	EQU	__Lrparam
  2414  0000                     __Hparam	EQU	__Hrparam
  2415  0000                            psect   temp,common,ovrld,class=COMRAM,space=1
  2416                           	global	btemp
  2417                           btemp:
  2418  00000E                     	ds	1
  2419  00000E                     	global	int$flags
  2420                           	int$flags	set btemp
  2421  0000                     	global	wtemp8
  2422                           	wtemp8 set btemp+1
  2423  0000                     	global	ttemp5
  2424                           	ttemp5 set btemp+1
  2425  0000                     	global	ttemp6
  2426                           	ttemp6 set btemp+4
  2427  0000                     	global	ttemp7
  2428                           	ttemp7 set btemp+8
  2429  0000                     	end


Data Sizes:
    Strings     0
    Constant    0
    Data        5
    BSS         6
    Persistent  0
    Stack       0

Auto Spaces:
    Space          Size  Autos    Used
    COMRAM           94      2      13
    BANK0           160      0       0
    BANK1           256      0       0
    BANK3           256      0       0
    BANK2           256      0       0

Pointer List with Targets:

    None.

Critical Paths under _main in COMRAM

    None.

Critical Paths under _isr in COMRAM

    None.

Critical Paths under _main in BANK0

    None.

Critical Paths under _isr in BANK0

    None.

Critical Paths under _main in BANK1

    None.

Critical Paths under _isr in BANK1

    None.

Critical Paths under _main in BANK3

    None.

Critical Paths under _isr in BANK3

    None.

Critical Paths under _main in BANK2

    None.

Critical Paths under _isr in BANK2

    None.

Call Graph Tables:

 ---------------------------------------------------------------------------------
 (Depth) Function   	        Calls       Base Space   Used Autos Params    Refs
 ---------------------------------------------------------------------------------
 (0) _main                                                 0     0      0       0
                  _clearFramingError
                  _clearOverrunError
                         _initServos
                           _initTMR2
                          _initUSART
 ---------------------------------------------------------------------------------
 (1) _initUSART                                            0     0      0       0
 ---------------------------------------------------------------------------------
 (1) _initTMR2                                             0     0      0       0
 ---------------------------------------------------------------------------------
 (1) _initServos                                           0     0      0       0
 ---------------------------------------------------------------------------------
 (1) _clearOverrunError                                    0     0      0       0
 ---------------------------------------------------------------------------------
 (1) _clearFramingError                                    0     0      0       0
 ---------------------------------------------------------------------------------
 Estimated maximum stack depth 1
 ---------------------------------------------------------------------------------
 (Depth) Function   	        Calls       Base Space   Used Autos Params    Refs
 ---------------------------------------------------------------------------------
 (2) _isr                                                  2     2      0       0
                                              0 COMRAM     2     2      0
 ---------------------------------------------------------------------------------
 Estimated maximum stack depth 2
 ---------------------------------------------------------------------------------

 Call Graph Graphs:

 _main (ROOT)
   _clearFramingError
   _clearOverrunError
   _initServos
   _initTMR2
   _initUSART

 _isr (ROOT)

 Address spaces:
Name               Size   Autos  Total    Cost      Usage
BIGRAM             3FF      0       0      12        0.0%
EEDATA             100      0       0       0        0.0%
BITBANK3           100      0       0      11        0.0%
BANK3              100      0       0       7        0.0%
BITBANK2           100      0       0       9        0.0%
BANK2              100      0       0      10        0.0%
BITBANK1           100      0       0       5        0.0%
BANK1              100      0       0       6        0.0%
BITBANK0            A0      0       0       3        0.0%
BANK0               A0      0       0       4        0.0%
BITCOMRAM           5E      0       0       0        0.0%
COMRAM              5E      2       D       1       13.8%
BITSFR_2             0      0       0     200        0.0%
SFR_2                0      0       0     200        0.0%
BITSFR_1             0      0       0     200        0.0%
SFR_1                0      0       0     200        0.0%
BITSFR               0      0       0     200        0.0%
SFR                  0      0       0     200        0.0%
STACK                0      0       0       2        0.0%
NULL                 0      0       0       0        0.0%
ABS                  0      0       D       8        0.0%
DATA                 0      0       D      13        0.0%
CODE                 0      0       0       0        0.0%


Microchip Technology PIC18 Macro Assembler V2.00 build -1524193055 
Symbol Table                                                                                   Sat Aug 11 02:36:18 2018

                     __CFG_CP$ON 000000                               l62 02E2  
                             l74 02A4                               l75 02C2  
                             l67 0284                               l59 02D4  
                             l76 02C2                               l68 02A2  
                             l69 02A2                               l79 02F0  
                             u10 029E                               u11 029A  
                             u20 02BE                               u21 02BA  
                    __CFG_CPD$ON 000000       __size_of_clearFramingError 0020  
                            l132 0212                              l133 0228  
                            l134 023E                              l135 0242  
                            l136 0246                              l137 0246  
                            l813 02C4                              l821 02D6  
                            l831 02E4                              l815 02CC  
                            l823 02D8                              l911 01FE  
                            l817 02D0                              l825 02DC  
                            l921 0212                              l913 0202  
                            l819 02D2                              l827 02DE  
                            l923 0220                              l915 0206  
                            l829 02E0                              l925 0228  
                            l917 020A                              l927 0236  
                            l919 020C                              _GIE 007F97  
                            _RA0 007C68                              _RA1 007C69  
                            _RA2 007C6A                              _RB0 007C70  
                            _RA3 007C6B                              _RB5 007C75  
                            u150 0220                              u151 021C  
                            u160 0236                              u161 0232  
                            _PR2 000FBC                              _isr 0008  
                   __CFG_LVP$OFF 000000                     __CFG_ZCD$OFF 000000  
                           ?_isr 000C                             _BRGH 007CF2  
                           _CREN 007CEC                             _FERR 007CEA  
                           _PEIE 007F96                             _RCIF 00766D  
                           _OERR 007CE9                             _SPEN 007CEF  
                   __CFG_WRT0$ON 000000                     __CFG_WRT1$ON 000000  
                  __CFG_EBTR0$ON 000000                    __CFG_FCMEN$ON 000000  
                  __CFG_EBTR1$ON 000000                     __CFG_WRTB$ON 000000  
                   __CFG_WRTC$ON 000000                     __CFG_WRTD$ON 000000  
                  __CFG_EBTRB$ON 000000                             _main 01FE  
                           fsr1l 000FE1                             btemp 000E  
      _lowerJawSawtoothThreshold 0008                             start 01FA  
                   ___param_bank 000000                    __CFG_SCANE$ON 000000  
                          ??_isr 000C                            ?_main 000C  
                  __CFG_WDTE$OFF 000000                            _T2CON 000FBD  
                 __CFG_DEBUG$OFF 000000                            i2l110 00C6  
                          i2l102 00CC                            i2l111 01F6  
                          i2l103 00CA                            i2l112 01C0  
                          i2l120 01AC                            i2l104 004E  
                          i2l121 011E                            i2l113 00E0  
                          i2l105 00CA                            i2l114 01F2  
                          i2l122 0128                            i2l106 0066  
                          i2l123 0132                            i2l115 00E8  
                          i2l107 007E                            i2l124 013C  
                          i2l116 00F0                            i2l108 0096  
                          i2l125 0146                            i2l117 0110  
                          i2l109 00AE                            i2l126 01B0  
                          i2l118 0162                            i2l119 0114  
                          i2l127 01F6                            i2l841 003C  
                          i2l833 000A                            i2l851 0078  
                          i2l843 0046                            i2l835 001A  
                          i2l861 00AE                            i2l853 007E  
                          i2l845 004E                            i2l837 001C  
                          i2l871 00F4                            i2l863 00C0  
                          i2l855 0090                            i2l847 0060  
                          i2l839 002C                            i2l881 0128  
                          i2l873 00F8                            i2l865 00DA  
                          i2l857 0096                            i2l849 0066  
                          i2l883 0132                            i2l875 0108  
                          i2l891 0162                            i2l867 00E0  
                          i2l859 00A8                            i2l893 01B0  
                          i2l885 013C                            i2l877 0114  
                          i2l869 00F0                            i2l991 01D4  
                          i2l895 01BC                            i2l887 0146  
                          i2l879 011E                            i2l889 015E  
                          i2l897 01C0                            i2l989 0176  
                          _RCREG 000F99                            _SPBRG 000F9B  
                  __CFG_PWRTE$ON 000000               __CFG_MCLRE$INTMCLR 000000  
                          tablat 000FF5                            ttemp5 000F  
                          ttemp6 0012                            ttemp7 0016  
                          status 000FD8                            wtemp8 000F  
       _eyebrowSawtoothThreshold 000B         _eyelidsSawtoothThreshold 0007  
                 __CFG_CSWEN$OFF 000000                  __initialization 024A  
                   __end_of_main 024A                           ??_main 000E  
                  __activetblptr 000002                   __CFG_WDTCCS$SC 000000  
                         _TMR2IE 007631                           _TMR2IF 007671  
                         _TMR2ON 007DEF                           i2u3_40 001A  
                         i2u3_41 0016                           i2u4_40 002C  
                         i2u4_41 0028                           i2u5_40 003C  
                         i2u5_41 0038                           i2u6_40 0060  
                         i2u6_41 005C                           i2u7_40 0078  
                         i2u7_41 0074                           i2u8_40 0090  
                         i2u8_41 008C                           _TRISA0 007C40  
                         _TRISA1 007C41                           _TRISA2 007C42  
                         _TRISB0 007C48                           _TRISB1 007C49  
                         _TRISA3 007C43                           _TRISB3 007C4B  
                         i2u9_40 00A8                           i2u9_41 00A4  
                 __CFG_XINST$OFF 000000                   __CFG_STVREN$ON 000000  
               __end_of_initTMR2 02D6                     __pdataCOMRAM 0007  
                         tblptrh 000FF7                           tblptrl 000FF6  
                         tblptru 000FF8            clearOverrunError@temp 0006  
                     __accesstop 0060          __end_of__initialization 0276  
                  ___rparam_used 000001                   __pcstackCOMRAM 000C  
              _clearOverrunError 0284               ?_clearOverrunError 000C  
            ??_clearOverrunError 000E               __size_of_initUSART 000E  
                __CFG_PPS1WAY$ON 000000        __end_of_clearOverrunError 02A4  
                        i2u10_40 00C0                          i2u10_41 00BC  
                        i2u11_40 00DA                          i2u11_41 00D6  
                        i2u12_40 0108                          i2u12_41 0104  
                        i2u13_40 0158                          i2u13_41 0152  
                        i2u14_45 015A                        ?_initTMR2 000C  
                        __Hparam 0000                          __Lparam 0000  
     __CFG_RSTOSC$HFINTOSC_64MHZ 000000                       _initServos 02E4  
                        __pcinit 024A                          __ramtop 0400  
              __end_of_initUSART 02E4                          __ptext0 01FE  
                        __ptext1 02D6                          __ptext2 02C4  
                        __ptext3 02E4                          __ptext4 0284  
                        __ptext5 02A4                     __size_of_isr 01F2  
           end_of_initialization 0276                  _sawtoothCounter 0001  
                     ??_initTMR2 000E                    __Lmediumconst 0000  
                        postdec1 000FE5                          postinc0 000FEE  
     __size_of_clearOverrunError 0020            __CFG_WDTCPS$WDTCPS_31 000000  
               __CFG_FEXTOSC$OFF 000000                      ?_initServos 000C  
                  __pidataCOMRAM 02F2              start_initialization 024A  
                    __end_of_isr 01FA            clearFramingError@temp 0005  
               __CFG_LPBOREN$OFF 000000                      __pbssCOMRAM 0001  
 _leftLipCornerSawtoothThreshold 000A              __size_of_initServos 000E  
              __size_of_initTMR2 0012                        __pintcode 0008  
                      _initUSART 02D6  _rightLipCornerSawtoothThreshold 0009  
                   _partMidiNote 0004                       ?_initUSART 000C  
                      copy_data0 025E                         __Hrparam 0000  
                       __Lrparam 0000               __CFG_BOREN$SBORDIS 000000  
                   ??_initServos 000E                _clearFramingError 02A4  
             ?_clearFramingError 000C                         _initTMR2 02C4  
             __end_of_initServos 02F2              ??_clearFramingError 000E  
                  __size_of_main 004C                   _receiveCounter 0002  
           __CFG_WDTCWS$WDTCWS_7 000000               __CFG_BORV$VBOR_285 000000  
                       _velocity 0003                         int$flags 000E  
      __end_of_clearFramingError 02C4                      ??_initUSART 000E  
                       intlevel2 0000                __CFG_CLKOUTEN$OFF 000000  
